ARM GAS  C:\Users\vmyhr\AppData\Local\Temp\ccl2YoCZ.s 			page 1


   1              		.cpu cortex-m3
   2              		.arch armv7-m
   3              		.fpu softvfp
   4              		.eabi_attribute 20, 1
   5              		.eabi_attribute 21, 1
   6              		.eabi_attribute 23, 3
   7              		.eabi_attribute 24, 1
   8              		.eabi_attribute 25, 1
   9              		.eabi_attribute 26, 1
  10              		.eabi_attribute 30, 1
  11              		.eabi_attribute 34, 1
  12              		.eabi_attribute 18, 4
  13              		.file	"stm32f1xx_hal_gpio.c"
  14              		.text
  15              	.Ltext0:
  16              		.cfi_sections	.debug_frame
  17              		.file 1 "Drivers/STM32F1xx_HAL_Driver/Src/stm32f1xx_hal_gpio.c"
  18              		.section	.text.HAL_GPIO_Init,"ax",%progbits
  19              		.align	1
  20              		.global	HAL_GPIO_Init
  21              		.syntax unified
  22              		.thumb
  23              		.thumb_func
  25              	HAL_GPIO_Init:
  26              	.LVL0:
  27              	.LFB65:
   1:Drivers/STM32F1xx_HAL_Driver/Src/stm32f1xx_hal_gpio.c **** /**
   2:Drivers/STM32F1xx_HAL_Driver/Src/stm32f1xx_hal_gpio.c ****   ******************************************************************************
   3:Drivers/STM32F1xx_HAL_Driver/Src/stm32f1xx_hal_gpio.c ****   * @file    stm32f1xx_hal_gpio.c
   4:Drivers/STM32F1xx_HAL_Driver/Src/stm32f1xx_hal_gpio.c ****   * @author  MCD Application Team
   5:Drivers/STM32F1xx_HAL_Driver/Src/stm32f1xx_hal_gpio.c ****   * @brief   GPIO HAL module driver.
   6:Drivers/STM32F1xx_HAL_Driver/Src/stm32f1xx_hal_gpio.c ****   *          This file provides firmware functions to manage the following
   7:Drivers/STM32F1xx_HAL_Driver/Src/stm32f1xx_hal_gpio.c ****   *          functionalities of the General Purpose Input/Output (GPIO) peripheral:
   8:Drivers/STM32F1xx_HAL_Driver/Src/stm32f1xx_hal_gpio.c ****   *           + Initialization and de-initialization functions
   9:Drivers/STM32F1xx_HAL_Driver/Src/stm32f1xx_hal_gpio.c ****   *           + IO operation functions
  10:Drivers/STM32F1xx_HAL_Driver/Src/stm32f1xx_hal_gpio.c ****   *
  11:Drivers/STM32F1xx_HAL_Driver/Src/stm32f1xx_hal_gpio.c ****   ******************************************************************************
  12:Drivers/STM32F1xx_HAL_Driver/Src/stm32f1xx_hal_gpio.c ****   * @attention
  13:Drivers/STM32F1xx_HAL_Driver/Src/stm32f1xx_hal_gpio.c ****   *
  14:Drivers/STM32F1xx_HAL_Driver/Src/stm32f1xx_hal_gpio.c ****   * Copyright (c) 2016 STMicroelectronics.
  15:Drivers/STM32F1xx_HAL_Driver/Src/stm32f1xx_hal_gpio.c ****   * All rights reserved.
  16:Drivers/STM32F1xx_HAL_Driver/Src/stm32f1xx_hal_gpio.c ****   *
  17:Drivers/STM32F1xx_HAL_Driver/Src/stm32f1xx_hal_gpio.c ****   * This software is licensed under terms that can be found in the LICENSE file
  18:Drivers/STM32F1xx_HAL_Driver/Src/stm32f1xx_hal_gpio.c ****   * in the root directory of this software component.
  19:Drivers/STM32F1xx_HAL_Driver/Src/stm32f1xx_hal_gpio.c ****   * If no LICENSE file comes with this software, it is provided AS-IS.
  20:Drivers/STM32F1xx_HAL_Driver/Src/stm32f1xx_hal_gpio.c ****   *
  21:Drivers/STM32F1xx_HAL_Driver/Src/stm32f1xx_hal_gpio.c ****   ******************************************************************************
  22:Drivers/STM32F1xx_HAL_Driver/Src/stm32f1xx_hal_gpio.c ****   @verbatim
  23:Drivers/STM32F1xx_HAL_Driver/Src/stm32f1xx_hal_gpio.c ****   ==============================================================================
  24:Drivers/STM32F1xx_HAL_Driver/Src/stm32f1xx_hal_gpio.c ****                     ##### GPIO Peripheral features #####
  25:Drivers/STM32F1xx_HAL_Driver/Src/stm32f1xx_hal_gpio.c ****   ==============================================================================
  26:Drivers/STM32F1xx_HAL_Driver/Src/stm32f1xx_hal_gpio.c ****   [..]
  27:Drivers/STM32F1xx_HAL_Driver/Src/stm32f1xx_hal_gpio.c ****   Subject to the specific hardware characteristics of each I/O port listed in the datasheet, each
  28:Drivers/STM32F1xx_HAL_Driver/Src/stm32f1xx_hal_gpio.c ****   port bit of the General Purpose IO (GPIO) Ports, can be individually configured by software
  29:Drivers/STM32F1xx_HAL_Driver/Src/stm32f1xx_hal_gpio.c ****   in several modes:
  30:Drivers/STM32F1xx_HAL_Driver/Src/stm32f1xx_hal_gpio.c ****   (+) Input mode
  31:Drivers/STM32F1xx_HAL_Driver/Src/stm32f1xx_hal_gpio.c ****   (+) Analog mode
ARM GAS  C:\Users\vmyhr\AppData\Local\Temp\ccl2YoCZ.s 			page 2


  32:Drivers/STM32F1xx_HAL_Driver/Src/stm32f1xx_hal_gpio.c ****   (+) Output mode
  33:Drivers/STM32F1xx_HAL_Driver/Src/stm32f1xx_hal_gpio.c ****   (+) Alternate function mode
  34:Drivers/STM32F1xx_HAL_Driver/Src/stm32f1xx_hal_gpio.c ****   (+) External interrupt/event lines
  35:Drivers/STM32F1xx_HAL_Driver/Src/stm32f1xx_hal_gpio.c **** 
  36:Drivers/STM32F1xx_HAL_Driver/Src/stm32f1xx_hal_gpio.c ****   [..]
  37:Drivers/STM32F1xx_HAL_Driver/Src/stm32f1xx_hal_gpio.c ****   During and just after reset, the alternate functions and external interrupt
  38:Drivers/STM32F1xx_HAL_Driver/Src/stm32f1xx_hal_gpio.c ****   lines are not active and the I/O ports are configured in input floating mode.
  39:Drivers/STM32F1xx_HAL_Driver/Src/stm32f1xx_hal_gpio.c **** 
  40:Drivers/STM32F1xx_HAL_Driver/Src/stm32f1xx_hal_gpio.c ****   [..]
  41:Drivers/STM32F1xx_HAL_Driver/Src/stm32f1xx_hal_gpio.c ****   All GPIO pins have weak internal pull-up and pull-down resistors, which can be
  42:Drivers/STM32F1xx_HAL_Driver/Src/stm32f1xx_hal_gpio.c ****   activated or not.
  43:Drivers/STM32F1xx_HAL_Driver/Src/stm32f1xx_hal_gpio.c **** 
  44:Drivers/STM32F1xx_HAL_Driver/Src/stm32f1xx_hal_gpio.c ****   [..]
  45:Drivers/STM32F1xx_HAL_Driver/Src/stm32f1xx_hal_gpio.c ****   In Output or Alternate mode, each IO can be configured on open-drain or push-pull
  46:Drivers/STM32F1xx_HAL_Driver/Src/stm32f1xx_hal_gpio.c ****   type and the IO speed can be selected depending on the VDD value.
  47:Drivers/STM32F1xx_HAL_Driver/Src/stm32f1xx_hal_gpio.c **** 
  48:Drivers/STM32F1xx_HAL_Driver/Src/stm32f1xx_hal_gpio.c ****   [..]
  49:Drivers/STM32F1xx_HAL_Driver/Src/stm32f1xx_hal_gpio.c ****   All ports have external interrupt/event capability. To use external interrupt
  50:Drivers/STM32F1xx_HAL_Driver/Src/stm32f1xx_hal_gpio.c ****   lines, the port must be configured in input mode. All available GPIO pins are
  51:Drivers/STM32F1xx_HAL_Driver/Src/stm32f1xx_hal_gpio.c ****   connected to the 16 external interrupt/event lines from EXTI0 to EXTI15.
  52:Drivers/STM32F1xx_HAL_Driver/Src/stm32f1xx_hal_gpio.c **** 
  53:Drivers/STM32F1xx_HAL_Driver/Src/stm32f1xx_hal_gpio.c ****   [..]
  54:Drivers/STM32F1xx_HAL_Driver/Src/stm32f1xx_hal_gpio.c ****   The external interrupt/event controller consists of up to 20 edge detectors in connectivity
  55:Drivers/STM32F1xx_HAL_Driver/Src/stm32f1xx_hal_gpio.c ****   line devices, or 19 edge detectors in other devices for generating event/interrupt requests.
  56:Drivers/STM32F1xx_HAL_Driver/Src/stm32f1xx_hal_gpio.c ****   Each input line can be independently configured to select the type (event or interrupt) and
  57:Drivers/STM32F1xx_HAL_Driver/Src/stm32f1xx_hal_gpio.c ****   the corresponding trigger event (rising or falling or both). Each line can also masked
  58:Drivers/STM32F1xx_HAL_Driver/Src/stm32f1xx_hal_gpio.c ****   independently. A pending register maintains the status line of the interrupt requests
  59:Drivers/STM32F1xx_HAL_Driver/Src/stm32f1xx_hal_gpio.c **** 
  60:Drivers/STM32F1xx_HAL_Driver/Src/stm32f1xx_hal_gpio.c ****                      ##### How to use this driver #####
  61:Drivers/STM32F1xx_HAL_Driver/Src/stm32f1xx_hal_gpio.c ****   ==============================================================================
  62:Drivers/STM32F1xx_HAL_Driver/Src/stm32f1xx_hal_gpio.c ****  [..]
  63:Drivers/STM32F1xx_HAL_Driver/Src/stm32f1xx_hal_gpio.c ****    (#) Enable the GPIO APB2 clock using the following function : __HAL_RCC_GPIOx_CLK_ENABLE().
  64:Drivers/STM32F1xx_HAL_Driver/Src/stm32f1xx_hal_gpio.c **** 
  65:Drivers/STM32F1xx_HAL_Driver/Src/stm32f1xx_hal_gpio.c ****    (#) Configure the GPIO pin(s) using HAL_GPIO_Init().
  66:Drivers/STM32F1xx_HAL_Driver/Src/stm32f1xx_hal_gpio.c ****        (++) Configure the IO mode using "Mode" member from GPIO_InitTypeDef structure
  67:Drivers/STM32F1xx_HAL_Driver/Src/stm32f1xx_hal_gpio.c ****        (++) Activate Pull-up, Pull-down resistor using "Pull" member from GPIO_InitTypeDef
  68:Drivers/STM32F1xx_HAL_Driver/Src/stm32f1xx_hal_gpio.c ****             structure.
  69:Drivers/STM32F1xx_HAL_Driver/Src/stm32f1xx_hal_gpio.c ****        (++) In case of Output or alternate function mode selection: the speed is
  70:Drivers/STM32F1xx_HAL_Driver/Src/stm32f1xx_hal_gpio.c ****             configured through "Speed" member from GPIO_InitTypeDef structure
  71:Drivers/STM32F1xx_HAL_Driver/Src/stm32f1xx_hal_gpio.c ****        (++) Analog mode is required when a pin is to be used as ADC channel
  72:Drivers/STM32F1xx_HAL_Driver/Src/stm32f1xx_hal_gpio.c ****             or DAC output.
  73:Drivers/STM32F1xx_HAL_Driver/Src/stm32f1xx_hal_gpio.c ****        (++) In case of external interrupt/event selection the "Mode" member from
  74:Drivers/STM32F1xx_HAL_Driver/Src/stm32f1xx_hal_gpio.c ****             GPIO_InitTypeDef structure select the type (interrupt or event) and
  75:Drivers/STM32F1xx_HAL_Driver/Src/stm32f1xx_hal_gpio.c ****             the corresponding trigger event (rising or falling or both).
  76:Drivers/STM32F1xx_HAL_Driver/Src/stm32f1xx_hal_gpio.c **** 
  77:Drivers/STM32F1xx_HAL_Driver/Src/stm32f1xx_hal_gpio.c ****    (#) In case of external interrupt/event mode selection, configure NVIC IRQ priority
  78:Drivers/STM32F1xx_HAL_Driver/Src/stm32f1xx_hal_gpio.c ****        mapped to the EXTI line using HAL_NVIC_SetPriority() and enable it using
  79:Drivers/STM32F1xx_HAL_Driver/Src/stm32f1xx_hal_gpio.c ****        HAL_NVIC_EnableIRQ().
  80:Drivers/STM32F1xx_HAL_Driver/Src/stm32f1xx_hal_gpio.c **** 
  81:Drivers/STM32F1xx_HAL_Driver/Src/stm32f1xx_hal_gpio.c ****    (#) To get the level of a pin configured in input mode use HAL_GPIO_ReadPin().
  82:Drivers/STM32F1xx_HAL_Driver/Src/stm32f1xx_hal_gpio.c **** 
  83:Drivers/STM32F1xx_HAL_Driver/Src/stm32f1xx_hal_gpio.c ****    (#) To set/reset the level of a pin configured in output mode use
  84:Drivers/STM32F1xx_HAL_Driver/Src/stm32f1xx_hal_gpio.c ****        HAL_GPIO_WritePin()/HAL_GPIO_TogglePin().
  85:Drivers/STM32F1xx_HAL_Driver/Src/stm32f1xx_hal_gpio.c **** 
  86:Drivers/STM32F1xx_HAL_Driver/Src/stm32f1xx_hal_gpio.c ****    (#) To lock pin configuration until next reset use HAL_GPIO_LockPin().
  87:Drivers/STM32F1xx_HAL_Driver/Src/stm32f1xx_hal_gpio.c **** 
  88:Drivers/STM32F1xx_HAL_Driver/Src/stm32f1xx_hal_gpio.c ****    (#) During and just after reset, the alternate functions are not
ARM GAS  C:\Users\vmyhr\AppData\Local\Temp\ccl2YoCZ.s 			page 3


  89:Drivers/STM32F1xx_HAL_Driver/Src/stm32f1xx_hal_gpio.c ****        active and the GPIO pins are configured in input floating mode (except JTAG
  90:Drivers/STM32F1xx_HAL_Driver/Src/stm32f1xx_hal_gpio.c ****        pins).
  91:Drivers/STM32F1xx_HAL_Driver/Src/stm32f1xx_hal_gpio.c **** 
  92:Drivers/STM32F1xx_HAL_Driver/Src/stm32f1xx_hal_gpio.c ****    (#) The LSE oscillator pins OSC32_IN and OSC32_OUT can be used as general purpose
  93:Drivers/STM32F1xx_HAL_Driver/Src/stm32f1xx_hal_gpio.c ****        (PC14 and PC15, respectively) when the LSE oscillator is off. The LSE has
  94:Drivers/STM32F1xx_HAL_Driver/Src/stm32f1xx_hal_gpio.c ****        priority over the GPIO function.
  95:Drivers/STM32F1xx_HAL_Driver/Src/stm32f1xx_hal_gpio.c **** 
  96:Drivers/STM32F1xx_HAL_Driver/Src/stm32f1xx_hal_gpio.c ****    (#) The HSE oscillator pins OSC_IN/OSC_OUT can be used as
  97:Drivers/STM32F1xx_HAL_Driver/Src/stm32f1xx_hal_gpio.c ****        general purpose PD0 and PD1, respectively, when the HSE oscillator is off.
  98:Drivers/STM32F1xx_HAL_Driver/Src/stm32f1xx_hal_gpio.c ****        The HSE has priority over the GPIO function.
  99:Drivers/STM32F1xx_HAL_Driver/Src/stm32f1xx_hal_gpio.c **** 
 100:Drivers/STM32F1xx_HAL_Driver/Src/stm32f1xx_hal_gpio.c ****   @endverbatim
 101:Drivers/STM32F1xx_HAL_Driver/Src/stm32f1xx_hal_gpio.c ****   ******************************************************************************
 102:Drivers/STM32F1xx_HAL_Driver/Src/stm32f1xx_hal_gpio.c ****   */
 103:Drivers/STM32F1xx_HAL_Driver/Src/stm32f1xx_hal_gpio.c **** 
 104:Drivers/STM32F1xx_HAL_Driver/Src/stm32f1xx_hal_gpio.c **** /* Includes ------------------------------------------------------------------*/
 105:Drivers/STM32F1xx_HAL_Driver/Src/stm32f1xx_hal_gpio.c **** #include "stm32f1xx_hal.h"
 106:Drivers/STM32F1xx_HAL_Driver/Src/stm32f1xx_hal_gpio.c **** 
 107:Drivers/STM32F1xx_HAL_Driver/Src/stm32f1xx_hal_gpio.c **** /** @addtogroup STM32F1xx_HAL_Driver
 108:Drivers/STM32F1xx_HAL_Driver/Src/stm32f1xx_hal_gpio.c ****   * @{
 109:Drivers/STM32F1xx_HAL_Driver/Src/stm32f1xx_hal_gpio.c ****   */
 110:Drivers/STM32F1xx_HAL_Driver/Src/stm32f1xx_hal_gpio.c **** 
 111:Drivers/STM32F1xx_HAL_Driver/Src/stm32f1xx_hal_gpio.c **** /** @defgroup GPIO GPIO
 112:Drivers/STM32F1xx_HAL_Driver/Src/stm32f1xx_hal_gpio.c ****   * @brief GPIO HAL module driver
 113:Drivers/STM32F1xx_HAL_Driver/Src/stm32f1xx_hal_gpio.c ****   * @{
 114:Drivers/STM32F1xx_HAL_Driver/Src/stm32f1xx_hal_gpio.c ****   */
 115:Drivers/STM32F1xx_HAL_Driver/Src/stm32f1xx_hal_gpio.c **** 
 116:Drivers/STM32F1xx_HAL_Driver/Src/stm32f1xx_hal_gpio.c **** #ifdef HAL_GPIO_MODULE_ENABLED
 117:Drivers/STM32F1xx_HAL_Driver/Src/stm32f1xx_hal_gpio.c **** 
 118:Drivers/STM32F1xx_HAL_Driver/Src/stm32f1xx_hal_gpio.c **** /* Private typedef -----------------------------------------------------------*/
 119:Drivers/STM32F1xx_HAL_Driver/Src/stm32f1xx_hal_gpio.c **** /* Private define ------------------------------------------------------------*/
 120:Drivers/STM32F1xx_HAL_Driver/Src/stm32f1xx_hal_gpio.c **** /** @addtogroup GPIO_Private_Constants GPIO Private Constants
 121:Drivers/STM32F1xx_HAL_Driver/Src/stm32f1xx_hal_gpio.c ****   * @{
 122:Drivers/STM32F1xx_HAL_Driver/Src/stm32f1xx_hal_gpio.c ****   */
 123:Drivers/STM32F1xx_HAL_Driver/Src/stm32f1xx_hal_gpio.c **** #define GPIO_MODE             0x00000003u
 124:Drivers/STM32F1xx_HAL_Driver/Src/stm32f1xx_hal_gpio.c **** #define EXTI_MODE             0x10000000u
 125:Drivers/STM32F1xx_HAL_Driver/Src/stm32f1xx_hal_gpio.c **** #define GPIO_MODE_IT          0x00010000u
 126:Drivers/STM32F1xx_HAL_Driver/Src/stm32f1xx_hal_gpio.c **** #define GPIO_MODE_EVT         0x00020000u
 127:Drivers/STM32F1xx_HAL_Driver/Src/stm32f1xx_hal_gpio.c **** #define RISING_EDGE           0x00100000u
 128:Drivers/STM32F1xx_HAL_Driver/Src/stm32f1xx_hal_gpio.c **** #define FALLING_EDGE          0x00200000u
 129:Drivers/STM32F1xx_HAL_Driver/Src/stm32f1xx_hal_gpio.c **** #define GPIO_OUTPUT_TYPE      0x00000010u
 130:Drivers/STM32F1xx_HAL_Driver/Src/stm32f1xx_hal_gpio.c **** 
 131:Drivers/STM32F1xx_HAL_Driver/Src/stm32f1xx_hal_gpio.c **** #define GPIO_NUMBER           16u
 132:Drivers/STM32F1xx_HAL_Driver/Src/stm32f1xx_hal_gpio.c **** 
 133:Drivers/STM32F1xx_HAL_Driver/Src/stm32f1xx_hal_gpio.c **** /* Definitions for bit manipulation of CRL and CRH register */
 134:Drivers/STM32F1xx_HAL_Driver/Src/stm32f1xx_hal_gpio.c **** #define  GPIO_CR_MODE_INPUT         0x00000000u /*!< 00: Input mode (reset state)  */
 135:Drivers/STM32F1xx_HAL_Driver/Src/stm32f1xx_hal_gpio.c **** #define  GPIO_CR_CNF_ANALOG         0x00000000u /*!< 00: Analog mode  */
 136:Drivers/STM32F1xx_HAL_Driver/Src/stm32f1xx_hal_gpio.c **** #define  GPIO_CR_CNF_INPUT_FLOATING 0x00000004u /*!< 01: Floating input (reset state)  */
 137:Drivers/STM32F1xx_HAL_Driver/Src/stm32f1xx_hal_gpio.c **** #define  GPIO_CR_CNF_INPUT_PU_PD    0x00000008u /*!< 10: Input with pull-up / pull-down  */
 138:Drivers/STM32F1xx_HAL_Driver/Src/stm32f1xx_hal_gpio.c **** #define  GPIO_CR_CNF_GP_OUTPUT_PP   0x00000000u /*!< 00: General purpose output push-pull  */
 139:Drivers/STM32F1xx_HAL_Driver/Src/stm32f1xx_hal_gpio.c **** #define  GPIO_CR_CNF_GP_OUTPUT_OD   0x00000004u /*!< 01: General purpose output Open-drain  */
 140:Drivers/STM32F1xx_HAL_Driver/Src/stm32f1xx_hal_gpio.c **** #define  GPIO_CR_CNF_AF_OUTPUT_PP   0x00000008u /*!< 10: Alternate function output Push-pull  */
 141:Drivers/STM32F1xx_HAL_Driver/Src/stm32f1xx_hal_gpio.c **** #define  GPIO_CR_CNF_AF_OUTPUT_OD   0x0000000Cu /*!< 11: Alternate function output Open-drain  */
 142:Drivers/STM32F1xx_HAL_Driver/Src/stm32f1xx_hal_gpio.c **** 
 143:Drivers/STM32F1xx_HAL_Driver/Src/stm32f1xx_hal_gpio.c **** /**
 144:Drivers/STM32F1xx_HAL_Driver/Src/stm32f1xx_hal_gpio.c ****   * @}
 145:Drivers/STM32F1xx_HAL_Driver/Src/stm32f1xx_hal_gpio.c ****   */
ARM GAS  C:\Users\vmyhr\AppData\Local\Temp\ccl2YoCZ.s 			page 4


 146:Drivers/STM32F1xx_HAL_Driver/Src/stm32f1xx_hal_gpio.c **** /* Private macro -------------------------------------------------------------*/
 147:Drivers/STM32F1xx_HAL_Driver/Src/stm32f1xx_hal_gpio.c **** /* Private variables ---------------------------------------------------------*/
 148:Drivers/STM32F1xx_HAL_Driver/Src/stm32f1xx_hal_gpio.c **** /* Private function prototypes -----------------------------------------------*/
 149:Drivers/STM32F1xx_HAL_Driver/Src/stm32f1xx_hal_gpio.c **** /* Private functions ---------------------------------------------------------*/
 150:Drivers/STM32F1xx_HAL_Driver/Src/stm32f1xx_hal_gpio.c **** /* Exported functions --------------------------------------------------------*/
 151:Drivers/STM32F1xx_HAL_Driver/Src/stm32f1xx_hal_gpio.c **** /** @defgroup GPIO_Exported_Functions GPIO Exported Functions
 152:Drivers/STM32F1xx_HAL_Driver/Src/stm32f1xx_hal_gpio.c ****   * @{
 153:Drivers/STM32F1xx_HAL_Driver/Src/stm32f1xx_hal_gpio.c ****   */
 154:Drivers/STM32F1xx_HAL_Driver/Src/stm32f1xx_hal_gpio.c **** 
 155:Drivers/STM32F1xx_HAL_Driver/Src/stm32f1xx_hal_gpio.c **** /** @defgroup GPIO_Exported_Functions_Group1 Initialization and de-initialization functions
 156:Drivers/STM32F1xx_HAL_Driver/Src/stm32f1xx_hal_gpio.c ****  *  @brief    Initialization and Configuration functions
 157:Drivers/STM32F1xx_HAL_Driver/Src/stm32f1xx_hal_gpio.c ****  *
 158:Drivers/STM32F1xx_HAL_Driver/Src/stm32f1xx_hal_gpio.c **** @verbatim
 159:Drivers/STM32F1xx_HAL_Driver/Src/stm32f1xx_hal_gpio.c ****  ===============================================================================
 160:Drivers/STM32F1xx_HAL_Driver/Src/stm32f1xx_hal_gpio.c ****               ##### Initialization and de-initialization functions #####
 161:Drivers/STM32F1xx_HAL_Driver/Src/stm32f1xx_hal_gpio.c ****  ===============================================================================
 162:Drivers/STM32F1xx_HAL_Driver/Src/stm32f1xx_hal_gpio.c ****   [..]
 163:Drivers/STM32F1xx_HAL_Driver/Src/stm32f1xx_hal_gpio.c ****     This section provides functions allowing to initialize and de-initialize the GPIOs
 164:Drivers/STM32F1xx_HAL_Driver/Src/stm32f1xx_hal_gpio.c ****     to be ready for use.
 165:Drivers/STM32F1xx_HAL_Driver/Src/stm32f1xx_hal_gpio.c **** 
 166:Drivers/STM32F1xx_HAL_Driver/Src/stm32f1xx_hal_gpio.c **** @endverbatim
 167:Drivers/STM32F1xx_HAL_Driver/Src/stm32f1xx_hal_gpio.c ****   * @{
 168:Drivers/STM32F1xx_HAL_Driver/Src/stm32f1xx_hal_gpio.c ****   */
 169:Drivers/STM32F1xx_HAL_Driver/Src/stm32f1xx_hal_gpio.c **** 
 170:Drivers/STM32F1xx_HAL_Driver/Src/stm32f1xx_hal_gpio.c **** 
 171:Drivers/STM32F1xx_HAL_Driver/Src/stm32f1xx_hal_gpio.c **** /**
 172:Drivers/STM32F1xx_HAL_Driver/Src/stm32f1xx_hal_gpio.c ****   * @brief  Initializes the GPIOx peripheral according to the specified parameters in the GPIO_Init
 173:Drivers/STM32F1xx_HAL_Driver/Src/stm32f1xx_hal_gpio.c ****   * @param  GPIOx: where x can be (A..G depending on device used) to select the GPIO peripheral
 174:Drivers/STM32F1xx_HAL_Driver/Src/stm32f1xx_hal_gpio.c ****   * @param  GPIO_Init: pointer to a GPIO_InitTypeDef structure that contains
 175:Drivers/STM32F1xx_HAL_Driver/Src/stm32f1xx_hal_gpio.c ****   *         the configuration information for the specified GPIO peripheral.
 176:Drivers/STM32F1xx_HAL_Driver/Src/stm32f1xx_hal_gpio.c ****   * @retval None
 177:Drivers/STM32F1xx_HAL_Driver/Src/stm32f1xx_hal_gpio.c ****   */
 178:Drivers/STM32F1xx_HAL_Driver/Src/stm32f1xx_hal_gpio.c **** void HAL_GPIO_Init(GPIO_TypeDef  *GPIOx, GPIO_InitTypeDef *GPIO_Init)
 179:Drivers/STM32F1xx_HAL_Driver/Src/stm32f1xx_hal_gpio.c **** {
  28              		.loc 1 179 1 view -0
  29              		.cfi_startproc
  30              		@ args = 0, pretend = 0, frame = 8
  31              		@ frame_needed = 0, uses_anonymous_args = 0
  32              		.loc 1 179 1 is_stmt 0 view .LVU1
  33 0000 70B5     		push	{r4, r5, r6, lr}
  34              		.cfi_def_cfa_offset 16
  35              		.cfi_offset 4, -16
  36              		.cfi_offset 5, -12
  37              		.cfi_offset 6, -8
  38              		.cfi_offset 14, -4
  39 0002 82B0     		sub	sp, sp, #8
  40              		.cfi_def_cfa_offset 24
 180:Drivers/STM32F1xx_HAL_Driver/Src/stm32f1xx_hal_gpio.c ****   uint32_t position = 0x00u;
  41              		.loc 1 180 3 is_stmt 1 view .LVU2
  42              	.LVL1:
 181:Drivers/STM32F1xx_HAL_Driver/Src/stm32f1xx_hal_gpio.c ****   uint32_t ioposition;
  43              		.loc 1 181 3 view .LVU3
 182:Drivers/STM32F1xx_HAL_Driver/Src/stm32f1xx_hal_gpio.c ****   uint32_t iocurrent;
  44              		.loc 1 182 3 view .LVU4
 183:Drivers/STM32F1xx_HAL_Driver/Src/stm32f1xx_hal_gpio.c ****   uint32_t temp;
  45              		.loc 1 183 3 view .LVU5
 184:Drivers/STM32F1xx_HAL_Driver/Src/stm32f1xx_hal_gpio.c ****   uint32_t config = 0x00u;
ARM GAS  C:\Users\vmyhr\AppData\Local\Temp\ccl2YoCZ.s 			page 5


  46              		.loc 1 184 3 view .LVU6
 185:Drivers/STM32F1xx_HAL_Driver/Src/stm32f1xx_hal_gpio.c ****   __IO uint32_t *configregister; /* Store the address of CRL or CRH register based on pin number */
  47              		.loc 1 185 3 view .LVU7
 186:Drivers/STM32F1xx_HAL_Driver/Src/stm32f1xx_hal_gpio.c ****   uint32_t registeroffset;       /* offset used during computation of CNF and MODE bits placement i
  48              		.loc 1 186 3 view .LVU8
 187:Drivers/STM32F1xx_HAL_Driver/Src/stm32f1xx_hal_gpio.c **** 
 188:Drivers/STM32F1xx_HAL_Driver/Src/stm32f1xx_hal_gpio.c ****   /* Check the parameters */
 189:Drivers/STM32F1xx_HAL_Driver/Src/stm32f1xx_hal_gpio.c ****   assert_param(IS_GPIO_ALL_INSTANCE(GPIOx));
  49              		.loc 1 189 3 view .LVU9
 190:Drivers/STM32F1xx_HAL_Driver/Src/stm32f1xx_hal_gpio.c ****   assert_param(IS_GPIO_PIN(GPIO_Init->Pin));
  50              		.loc 1 190 3 view .LVU10
 191:Drivers/STM32F1xx_HAL_Driver/Src/stm32f1xx_hal_gpio.c ****   assert_param(IS_GPIO_MODE(GPIO_Init->Mode));
  51              		.loc 1 191 3 view .LVU11
 192:Drivers/STM32F1xx_HAL_Driver/Src/stm32f1xx_hal_gpio.c **** 
 193:Drivers/STM32F1xx_HAL_Driver/Src/stm32f1xx_hal_gpio.c ****   /* Configure the port pins */
 194:Drivers/STM32F1xx_HAL_Driver/Src/stm32f1xx_hal_gpio.c ****   while (((GPIO_Init->Pin) >> position) != 0x00u)
  52              		.loc 1 194 3 view .LVU12
 184:Drivers/STM32F1xx_HAL_Driver/Src/stm32f1xx_hal_gpio.c ****   __IO uint32_t *configregister; /* Store the address of CRL or CRH register based on pin number */
  53              		.loc 1 184 12 is_stmt 0 view .LVU13
  54 0004 0024     		movs	r4, #0
 180:Drivers/STM32F1xx_HAL_Driver/Src/stm32f1xx_hal_gpio.c ****   uint32_t ioposition;
  55              		.loc 1 180 12 view .LVU14
  56 0006 A446     		mov	ip, r4
  57              		.loc 1 194 9 view .LVU15
  58 0008 A1E0     		b	.L2
  59              	.LVL2:
  60              	.L4:
 195:Drivers/STM32F1xx_HAL_Driver/Src/stm32f1xx_hal_gpio.c ****   {
 196:Drivers/STM32F1xx_HAL_Driver/Src/stm32f1xx_hal_gpio.c ****     /* Get the IO position */
 197:Drivers/STM32F1xx_HAL_Driver/Src/stm32f1xx_hal_gpio.c ****     ioposition = (0x01uL << position);
 198:Drivers/STM32F1xx_HAL_Driver/Src/stm32f1xx_hal_gpio.c **** 
 199:Drivers/STM32F1xx_HAL_Driver/Src/stm32f1xx_hal_gpio.c ****     /* Get the current IO position */
 200:Drivers/STM32F1xx_HAL_Driver/Src/stm32f1xx_hal_gpio.c ****     iocurrent = (uint32_t)(GPIO_Init->Pin) & ioposition;
 201:Drivers/STM32F1xx_HAL_Driver/Src/stm32f1xx_hal_gpio.c **** 
 202:Drivers/STM32F1xx_HAL_Driver/Src/stm32f1xx_hal_gpio.c ****     if (iocurrent == ioposition)
 203:Drivers/STM32F1xx_HAL_Driver/Src/stm32f1xx_hal_gpio.c ****     {
 204:Drivers/STM32F1xx_HAL_Driver/Src/stm32f1xx_hal_gpio.c ****       /* Check the Alternate function parameters */
 205:Drivers/STM32F1xx_HAL_Driver/Src/stm32f1xx_hal_gpio.c ****       assert_param(IS_GPIO_AF_INSTANCE(GPIOx));
 206:Drivers/STM32F1xx_HAL_Driver/Src/stm32f1xx_hal_gpio.c **** 
 207:Drivers/STM32F1xx_HAL_Driver/Src/stm32f1xx_hal_gpio.c ****       /* Based on the required mode, filling config variable with MODEy[1:0] and CNFy[3:2] correspo
 208:Drivers/STM32F1xx_HAL_Driver/Src/stm32f1xx_hal_gpio.c ****       switch (GPIO_Init->Mode)
  61              		.loc 1 208 7 view .LVU16
  62 000a 7E4D     		ldr	r5, .L38
  63 000c AB42     		cmp	r3, r5
  64 000e 14D0     		beq	.L12
  65 0010 0CD8     		bhi	.L13
  66 0012 A5F58015 		sub	r5, r5, #1048576
  67 0016 AB42     		cmp	r3, r5
  68 0018 0FD0     		beq	.L12
  69 001a 05F57025 		add	r5, r5, #983040
  70 001e AB42     		cmp	r3, r5
  71 0020 0BD0     		beq	.L12
  72 0022 A5F58015 		sub	r5, r5, #1048576
  73 0026 AB42     		cmp	r3, r5
  74 0028 10D1     		bne	.L9
  75 002a 06E0     		b	.L12
  76              	.L13:
ARM GAS  C:\Users\vmyhr\AppData\Local\Temp\ccl2YoCZ.s 			page 6


  77 002c 764D     		ldr	r5, .L38+4
  78 002e AB42     		cmp	r3, r5
  79 0030 03D0     		beq	.L12
  80 0032 05F58035 		add	r5, r5, #65536
  81 0036 AB42     		cmp	r3, r5
  82 0038 08D1     		bne	.L9
  83              	.L12:
 209:Drivers/STM32F1xx_HAL_Driver/Src/stm32f1xx_hal_gpio.c ****       {
 210:Drivers/STM32F1xx_HAL_Driver/Src/stm32f1xx_hal_gpio.c ****         /* If we are configuring the pin in OUTPUT push-pull mode */
 211:Drivers/STM32F1xx_HAL_Driver/Src/stm32f1xx_hal_gpio.c ****         case GPIO_MODE_OUTPUT_PP:
 212:Drivers/STM32F1xx_HAL_Driver/Src/stm32f1xx_hal_gpio.c ****           /* Check the GPIO speed parameter */
 213:Drivers/STM32F1xx_HAL_Driver/Src/stm32f1xx_hal_gpio.c ****           assert_param(IS_GPIO_SPEED(GPIO_Init->Speed));
 214:Drivers/STM32F1xx_HAL_Driver/Src/stm32f1xx_hal_gpio.c ****           config = GPIO_Init->Speed + GPIO_CR_CNF_GP_OUTPUT_PP;
 215:Drivers/STM32F1xx_HAL_Driver/Src/stm32f1xx_hal_gpio.c ****           break;
 216:Drivers/STM32F1xx_HAL_Driver/Src/stm32f1xx_hal_gpio.c **** 
 217:Drivers/STM32F1xx_HAL_Driver/Src/stm32f1xx_hal_gpio.c ****         /* If we are configuring the pin in OUTPUT open-drain mode */
 218:Drivers/STM32F1xx_HAL_Driver/Src/stm32f1xx_hal_gpio.c ****         case GPIO_MODE_OUTPUT_OD:
 219:Drivers/STM32F1xx_HAL_Driver/Src/stm32f1xx_hal_gpio.c ****           /* Check the GPIO speed parameter */
 220:Drivers/STM32F1xx_HAL_Driver/Src/stm32f1xx_hal_gpio.c ****           assert_param(IS_GPIO_SPEED(GPIO_Init->Speed));
 221:Drivers/STM32F1xx_HAL_Driver/Src/stm32f1xx_hal_gpio.c ****           config = GPIO_Init->Speed + GPIO_CR_CNF_GP_OUTPUT_OD;
 222:Drivers/STM32F1xx_HAL_Driver/Src/stm32f1xx_hal_gpio.c ****           break;
 223:Drivers/STM32F1xx_HAL_Driver/Src/stm32f1xx_hal_gpio.c **** 
 224:Drivers/STM32F1xx_HAL_Driver/Src/stm32f1xx_hal_gpio.c ****         /* If we are configuring the pin in ALTERNATE FUNCTION push-pull mode */
 225:Drivers/STM32F1xx_HAL_Driver/Src/stm32f1xx_hal_gpio.c ****         case GPIO_MODE_AF_PP:
 226:Drivers/STM32F1xx_HAL_Driver/Src/stm32f1xx_hal_gpio.c ****           /* Check the GPIO speed parameter */
 227:Drivers/STM32F1xx_HAL_Driver/Src/stm32f1xx_hal_gpio.c ****           assert_param(IS_GPIO_SPEED(GPIO_Init->Speed));
 228:Drivers/STM32F1xx_HAL_Driver/Src/stm32f1xx_hal_gpio.c ****           config = GPIO_Init->Speed + GPIO_CR_CNF_AF_OUTPUT_PP;
 229:Drivers/STM32F1xx_HAL_Driver/Src/stm32f1xx_hal_gpio.c ****           break;
 230:Drivers/STM32F1xx_HAL_Driver/Src/stm32f1xx_hal_gpio.c **** 
 231:Drivers/STM32F1xx_HAL_Driver/Src/stm32f1xx_hal_gpio.c ****         /* If we are configuring the pin in ALTERNATE FUNCTION open-drain mode */
 232:Drivers/STM32F1xx_HAL_Driver/Src/stm32f1xx_hal_gpio.c ****         case GPIO_MODE_AF_OD:
 233:Drivers/STM32F1xx_HAL_Driver/Src/stm32f1xx_hal_gpio.c ****           /* Check the GPIO speed parameter */
 234:Drivers/STM32F1xx_HAL_Driver/Src/stm32f1xx_hal_gpio.c ****           assert_param(IS_GPIO_SPEED(GPIO_Init->Speed));
 235:Drivers/STM32F1xx_HAL_Driver/Src/stm32f1xx_hal_gpio.c ****           config = GPIO_Init->Speed + GPIO_CR_CNF_AF_OUTPUT_OD;
 236:Drivers/STM32F1xx_HAL_Driver/Src/stm32f1xx_hal_gpio.c ****           break;
 237:Drivers/STM32F1xx_HAL_Driver/Src/stm32f1xx_hal_gpio.c **** 
 238:Drivers/STM32F1xx_HAL_Driver/Src/stm32f1xx_hal_gpio.c ****         /* If we are configuring the pin in INPUT (also applicable to EVENT and IT mode) */
 239:Drivers/STM32F1xx_HAL_Driver/Src/stm32f1xx_hal_gpio.c ****         case GPIO_MODE_INPUT:
 240:Drivers/STM32F1xx_HAL_Driver/Src/stm32f1xx_hal_gpio.c ****         case GPIO_MODE_IT_RISING:
 241:Drivers/STM32F1xx_HAL_Driver/Src/stm32f1xx_hal_gpio.c ****         case GPIO_MODE_IT_FALLING:
 242:Drivers/STM32F1xx_HAL_Driver/Src/stm32f1xx_hal_gpio.c ****         case GPIO_MODE_IT_RISING_FALLING:
 243:Drivers/STM32F1xx_HAL_Driver/Src/stm32f1xx_hal_gpio.c ****         case GPIO_MODE_EVT_RISING:
 244:Drivers/STM32F1xx_HAL_Driver/Src/stm32f1xx_hal_gpio.c ****         case GPIO_MODE_EVT_FALLING:
 245:Drivers/STM32F1xx_HAL_Driver/Src/stm32f1xx_hal_gpio.c ****         case GPIO_MODE_EVT_RISING_FALLING:
 246:Drivers/STM32F1xx_HAL_Driver/Src/stm32f1xx_hal_gpio.c ****           /* Check the GPIO pull parameter */
 247:Drivers/STM32F1xx_HAL_Driver/Src/stm32f1xx_hal_gpio.c ****           assert_param(IS_GPIO_PULL(GPIO_Init->Pull));
  84              		.loc 1 247 11 is_stmt 1 view .LVU17
 248:Drivers/STM32F1xx_HAL_Driver/Src/stm32f1xx_hal_gpio.c ****           if (GPIO_Init->Pull == GPIO_NOPULL)
  85              		.loc 1 248 11 view .LVU18
  86              		.loc 1 248 24 is_stmt 0 view .LVU19
  87 003a 8B68     		ldr	r3, [r1, #8]
  88              		.loc 1 248 14 view .LVU20
  89 003c 002B     		cmp	r3, #0
  90 003e 50D0     		beq	.L27
 249:Drivers/STM32F1xx_HAL_Driver/Src/stm32f1xx_hal_gpio.c ****           {
 250:Drivers/STM32F1xx_HAL_Driver/Src/stm32f1xx_hal_gpio.c ****             config = GPIO_CR_MODE_INPUT + GPIO_CR_CNF_INPUT_FLOATING;
 251:Drivers/STM32F1xx_HAL_Driver/Src/stm32f1xx_hal_gpio.c ****           }
ARM GAS  C:\Users\vmyhr\AppData\Local\Temp\ccl2YoCZ.s 			page 7


 252:Drivers/STM32F1xx_HAL_Driver/Src/stm32f1xx_hal_gpio.c ****           else if (GPIO_Init->Pull == GPIO_PULLUP)
  91              		.loc 1 252 16 is_stmt 1 view .LVU21
  92              		.loc 1 252 19 is_stmt 0 view .LVU22
  93 0040 012B     		cmp	r3, #1
  94 0042 49D0     		beq	.L35
 253:Drivers/STM32F1xx_HAL_Driver/Src/stm32f1xx_hal_gpio.c ****           {
 254:Drivers/STM32F1xx_HAL_Driver/Src/stm32f1xx_hal_gpio.c ****             config = GPIO_CR_MODE_INPUT + GPIO_CR_CNF_INPUT_PU_PD;
 255:Drivers/STM32F1xx_HAL_Driver/Src/stm32f1xx_hal_gpio.c **** 
 256:Drivers/STM32F1xx_HAL_Driver/Src/stm32f1xx_hal_gpio.c ****             /* Set the corresponding ODR bit */
 257:Drivers/STM32F1xx_HAL_Driver/Src/stm32f1xx_hal_gpio.c ****             GPIOx->BSRR = ioposition;
 258:Drivers/STM32F1xx_HAL_Driver/Src/stm32f1xx_hal_gpio.c ****           }
 259:Drivers/STM32F1xx_HAL_Driver/Src/stm32f1xx_hal_gpio.c ****           else /* GPIO_PULLDOWN */
 260:Drivers/STM32F1xx_HAL_Driver/Src/stm32f1xx_hal_gpio.c ****           {
 261:Drivers/STM32F1xx_HAL_Driver/Src/stm32f1xx_hal_gpio.c ****             config = GPIO_CR_MODE_INPUT + GPIO_CR_CNF_INPUT_PU_PD;
  95              		.loc 1 261 13 is_stmt 1 view .LVU23
  96              	.LVL3:
 262:Drivers/STM32F1xx_HAL_Driver/Src/stm32f1xx_hal_gpio.c **** 
 263:Drivers/STM32F1xx_HAL_Driver/Src/stm32f1xx_hal_gpio.c ****             /* Reset the corresponding ODR bit */
 264:Drivers/STM32F1xx_HAL_Driver/Src/stm32f1xx_hal_gpio.c ****             GPIOx->BRR = ioposition;
  97              		.loc 1 264 13 view .LVU24
  98              		.loc 1 264 24 is_stmt 0 view .LVU25
  99 0044 4261     		str	r2, [r0, #20]
 261:Drivers/STM32F1xx_HAL_Driver/Src/stm32f1xx_hal_gpio.c **** 
 100              		.loc 1 261 20 view .LVU26
 101 0046 0824     		movs	r4, #8
 102 0048 00E0     		b	.L9
 103              	.LVL4:
 104              	.L11:
 213:Drivers/STM32F1xx_HAL_Driver/Src/stm32f1xx_hal_gpio.c ****           config = GPIO_Init->Speed + GPIO_CR_CNF_GP_OUTPUT_PP;
 105              		.loc 1 213 11 is_stmt 1 view .LVU27
 214:Drivers/STM32F1xx_HAL_Driver/Src/stm32f1xx_hal_gpio.c ****           break;
 106              		.loc 1 214 11 view .LVU28
 214:Drivers/STM32F1xx_HAL_Driver/Src/stm32f1xx_hal_gpio.c ****           break;
 107              		.loc 1 214 18 is_stmt 0 view .LVU29
 108 004a CC68     		ldr	r4, [r1, #12]
 109              	.LVL5:
 215:Drivers/STM32F1xx_HAL_Driver/Src/stm32f1xx_hal_gpio.c **** 
 110              		.loc 1 215 11 is_stmt 1 view .LVU30
 111              	.L9:
 265:Drivers/STM32F1xx_HAL_Driver/Src/stm32f1xx_hal_gpio.c ****           }
 266:Drivers/STM32F1xx_HAL_Driver/Src/stm32f1xx_hal_gpio.c ****           break;
 267:Drivers/STM32F1xx_HAL_Driver/Src/stm32f1xx_hal_gpio.c **** 
 268:Drivers/STM32F1xx_HAL_Driver/Src/stm32f1xx_hal_gpio.c ****         /* If we are configuring the pin in INPUT analog mode */
 269:Drivers/STM32F1xx_HAL_Driver/Src/stm32f1xx_hal_gpio.c ****         case GPIO_MODE_ANALOG:
 270:Drivers/STM32F1xx_HAL_Driver/Src/stm32f1xx_hal_gpio.c ****           config = GPIO_CR_MODE_INPUT + GPIO_CR_CNF_ANALOG;
 271:Drivers/STM32F1xx_HAL_Driver/Src/stm32f1xx_hal_gpio.c ****           break;
 272:Drivers/STM32F1xx_HAL_Driver/Src/stm32f1xx_hal_gpio.c **** 
 273:Drivers/STM32F1xx_HAL_Driver/Src/stm32f1xx_hal_gpio.c ****         /* Parameters are checked with assert_param */
 274:Drivers/STM32F1xx_HAL_Driver/Src/stm32f1xx_hal_gpio.c ****         default:
 275:Drivers/STM32F1xx_HAL_Driver/Src/stm32f1xx_hal_gpio.c ****           break;
 276:Drivers/STM32F1xx_HAL_Driver/Src/stm32f1xx_hal_gpio.c ****       }
 277:Drivers/STM32F1xx_HAL_Driver/Src/stm32f1xx_hal_gpio.c **** 
 278:Drivers/STM32F1xx_HAL_Driver/Src/stm32f1xx_hal_gpio.c ****       /* Check if the current bit belongs to first half or last half of the pin count number
 279:Drivers/STM32F1xx_HAL_Driver/Src/stm32f1xx_hal_gpio.c ****        in order to address CRH or CRL register*/
 280:Drivers/STM32F1xx_HAL_Driver/Src/stm32f1xx_hal_gpio.c ****       configregister = (iocurrent < GPIO_PIN_8) ? &GPIOx->CRL     : &GPIOx->CRH;
 112              		.loc 1 280 7 view .LVU31
 113              		.loc 1 280 67 is_stmt 0 view .LVU32
ARM GAS  C:\Users\vmyhr\AppData\Local\Temp\ccl2YoCZ.s 			page 8


 114 004c BEF1FF0F 		cmp	lr, #255
 115 0050 49D8     		bhi	.L15
 116              		.loc 1 280 67 discriminator 1 view .LVU33
 117 0052 0646     		mov	r6, r0
 118              	.LVL6:
 281:Drivers/STM32F1xx_HAL_Driver/Src/stm32f1xx_hal_gpio.c ****       registeroffset = (iocurrent < GPIO_PIN_8) ? (position << 2u) : ((position - 8u) << 2u);
 119              		.loc 1 281 7 is_stmt 1 view .LVU34
 120              		.loc 1 281 68 is_stmt 0 discriminator 1 view .LVU35
 121 0054 4FEA8C02 		lsl	r2, ip, #2
 122              	.LVL7:
 123              	.L16:
 282:Drivers/STM32F1xx_HAL_Driver/Src/stm32f1xx_hal_gpio.c **** 
 283:Drivers/STM32F1xx_HAL_Driver/Src/stm32f1xx_hal_gpio.c ****       /* Apply the new configuration of the pin to the register */
 284:Drivers/STM32F1xx_HAL_Driver/Src/stm32f1xx_hal_gpio.c ****       MODIFY_REG((*configregister), ((GPIO_CRL_MODE0 | GPIO_CRL_CNF0) << registeroffset), (config <
 124              		.loc 1 284 7 is_stmt 1 view .LVU36
 125 0058 3368     		ldr	r3, [r6]
 126 005a 0F25     		movs	r5, #15
 127 005c 9540     		lsls	r5, r5, r2
 128 005e 23EA0503 		bic	r3, r3, r5
 129 0062 04FA02F2 		lsl	r2, r4, r2
 130              	.LVL8:
 131              		.loc 1 284 7 is_stmt 0 view .LVU37
 132 0066 1343     		orrs	r3, r3, r2
 133 0068 3360     		str	r3, [r6]
 285:Drivers/STM32F1xx_HAL_Driver/Src/stm32f1xx_hal_gpio.c **** 
 286:Drivers/STM32F1xx_HAL_Driver/Src/stm32f1xx_hal_gpio.c ****       /*--------------------- EXTI Mode Configuration ------------------------*/
 287:Drivers/STM32F1xx_HAL_Driver/Src/stm32f1xx_hal_gpio.c ****       /* Configure the External Interrupt or event for the current IO */
 288:Drivers/STM32F1xx_HAL_Driver/Src/stm32f1xx_hal_gpio.c ****       if ((GPIO_Init->Mode & EXTI_MODE) == EXTI_MODE)
 134              		.loc 1 288 7 is_stmt 1 view .LVU38
 135              		.loc 1 288 21 is_stmt 0 view .LVU39
 136 006a 4B68     		ldr	r3, [r1, #4]
 137              		.loc 1 288 10 view .LVU40
 138 006c 13F0805F 		tst	r3, #268435456
 139 0070 6BD0     		beq	.L3
 289:Drivers/STM32F1xx_HAL_Driver/Src/stm32f1xx_hal_gpio.c ****       {
 290:Drivers/STM32F1xx_HAL_Driver/Src/stm32f1xx_hal_gpio.c ****         /* Enable AFIO Clock */
 291:Drivers/STM32F1xx_HAL_Driver/Src/stm32f1xx_hal_gpio.c ****         __HAL_RCC_AFIO_CLK_ENABLE();
 140              		.loc 1 291 9 is_stmt 1 view .LVU41
 141              	.LBB2:
 142              		.loc 1 291 9 view .LVU42
 143              		.loc 1 291 9 view .LVU43
 144 0072 664B     		ldr	r3, .L38+8
 145 0074 9A69     		ldr	r2, [r3, #24]
 146 0076 42F00102 		orr	r2, r2, #1
 147 007a 9A61     		str	r2, [r3, #24]
 148              		.loc 1 291 9 view .LVU44
 149 007c 9B69     		ldr	r3, [r3, #24]
 150 007e 03F00103 		and	r3, r3, #1
 151 0082 0193     		str	r3, [sp, #4]
 152              		.loc 1 291 9 view .LVU45
 153 0084 019B     		ldr	r3, [sp, #4]
 154              	.LBE2:
 155              		.loc 1 291 9 view .LVU46
 292:Drivers/STM32F1xx_HAL_Driver/Src/stm32f1xx_hal_gpio.c ****         temp = AFIO->EXTICR[position >> 2u];
 156              		.loc 1 292 9 view .LVU47
 157              		.loc 1 292 38 is_stmt 0 view .LVU48
 158 0086 4FEA9C02 		lsr	r2, ip, #2
ARM GAS  C:\Users\vmyhr\AppData\Local\Temp\ccl2YoCZ.s 			page 9


 159              		.loc 1 292 14 view .LVU49
 160 008a 951C     		adds	r5, r2, #2
 161 008c 604B     		ldr	r3, .L38+12
 162 008e 53F82560 		ldr	r6, [r3, r5, lsl #2]
 163              	.LVL9:
 293:Drivers/STM32F1xx_HAL_Driver/Src/stm32f1xx_hal_gpio.c ****         CLEAR_BIT(temp, (0x0Fu) << (4u * (position & 0x03u)));
 164              		.loc 1 293 9 is_stmt 1 view .LVU50
 165 0092 0CF00305 		and	r5, ip, #3
 166 0096 AD00     		lsls	r5, r5, #2
 167 0098 0F23     		movs	r3, #15
 168 009a AB40     		lsls	r3, r3, r5
 169 009c 26EA0306 		bic	r6, r6, r3
 170              	.LVL10:
 294:Drivers/STM32F1xx_HAL_Driver/Src/stm32f1xx_hal_gpio.c ****         SET_BIT(temp, (GPIO_GET_INDEX(GPIOx)) << (4u * (position & 0x03u)));
 171              		.loc 1 294 9 view .LVU51
 172 00a0 5C4B     		ldr	r3, .L38+16
 173 00a2 9842     		cmp	r0, r3
 174 00a4 26D0     		beq	.L28
 175              		.loc 1 294 9 is_stmt 0 discriminator 1 view .LVU52
 176 00a6 03F58063 		add	r3, r3, #1024
 177 00aa 9842     		cmp	r0, r3
 178 00ac 00F08C80 		beq	.L29
 179              		.loc 1 294 9 discriminator 3 view .LVU53
 180 00b0 03F58063 		add	r3, r3, #1024
 181 00b4 9842     		cmp	r0, r3
 182 00b6 00F08980 		beq	.L30
 183              		.loc 1 294 9 discriminator 5 view .LVU54
 184 00ba 03F58063 		add	r3, r3, #1024
 185 00be 9842     		cmp	r0, r3
 186 00c0 16D0     		beq	.L36
 187              		.loc 1 294 9 discriminator 8 view .LVU55
 188 00c2 0423     		movs	r3, #4
 189 00c4 17E0     		b	.L17
 190              	.LVL11:
 191              	.L8:
 220:Drivers/STM32F1xx_HAL_Driver/Src/stm32f1xx_hal_gpio.c ****           config = GPIO_Init->Speed + GPIO_CR_CNF_GP_OUTPUT_OD;
 192              		.loc 1 220 11 is_stmt 1 view .LVU56
 221:Drivers/STM32F1xx_HAL_Driver/Src/stm32f1xx_hal_gpio.c ****           break;
 193              		.loc 1 221 11 view .LVU57
 221:Drivers/STM32F1xx_HAL_Driver/Src/stm32f1xx_hal_gpio.c ****           break;
 194              		.loc 1 221 29 is_stmt 0 view .LVU58
 195 00c6 CC68     		ldr	r4, [r1, #12]
 196              	.LVL12:
 221:Drivers/STM32F1xx_HAL_Driver/Src/stm32f1xx_hal_gpio.c ****           break;
 197              		.loc 1 221 18 view .LVU59
 198 00c8 0434     		adds	r4, r4, #4
 199              	.LVL13:
 222:Drivers/STM32F1xx_HAL_Driver/Src/stm32f1xx_hal_gpio.c **** 
 200              		.loc 1 222 11 is_stmt 1 view .LVU60
 201 00ca BFE7     		b	.L9
 202              	.L10:
 227:Drivers/STM32F1xx_HAL_Driver/Src/stm32f1xx_hal_gpio.c ****           config = GPIO_Init->Speed + GPIO_CR_CNF_AF_OUTPUT_PP;
 203              		.loc 1 227 11 view .LVU61
 228:Drivers/STM32F1xx_HAL_Driver/Src/stm32f1xx_hal_gpio.c ****           break;
 204              		.loc 1 228 11 view .LVU62
 228:Drivers/STM32F1xx_HAL_Driver/Src/stm32f1xx_hal_gpio.c ****           break;
 205              		.loc 1 228 29 is_stmt 0 view .LVU63
ARM GAS  C:\Users\vmyhr\AppData\Local\Temp\ccl2YoCZ.s 			page 10


 206 00cc CC68     		ldr	r4, [r1, #12]
 207              	.LVL14:
 228:Drivers/STM32F1xx_HAL_Driver/Src/stm32f1xx_hal_gpio.c ****           break;
 208              		.loc 1 228 18 view .LVU64
 209 00ce 0834     		adds	r4, r4, #8
 210              	.LVL15:
 229:Drivers/STM32F1xx_HAL_Driver/Src/stm32f1xx_hal_gpio.c **** 
 211              		.loc 1 229 11 is_stmt 1 view .LVU65
 212 00d0 BCE7     		b	.L9
 213              	.L6:
 234:Drivers/STM32F1xx_HAL_Driver/Src/stm32f1xx_hal_gpio.c ****           config = GPIO_Init->Speed + GPIO_CR_CNF_AF_OUTPUT_OD;
 214              		.loc 1 234 11 view .LVU66
 235:Drivers/STM32F1xx_HAL_Driver/Src/stm32f1xx_hal_gpio.c ****           break;
 215              		.loc 1 235 11 view .LVU67
 235:Drivers/STM32F1xx_HAL_Driver/Src/stm32f1xx_hal_gpio.c ****           break;
 216              		.loc 1 235 29 is_stmt 0 view .LVU68
 217 00d2 CC68     		ldr	r4, [r1, #12]
 218              	.LVL16:
 235:Drivers/STM32F1xx_HAL_Driver/Src/stm32f1xx_hal_gpio.c ****           break;
 219              		.loc 1 235 18 view .LVU69
 220 00d4 0C34     		adds	r4, r4, #12
 221              	.LVL17:
 236:Drivers/STM32F1xx_HAL_Driver/Src/stm32f1xx_hal_gpio.c **** 
 222              		.loc 1 236 11 is_stmt 1 view .LVU70
 223 00d6 B9E7     		b	.L9
 224              	.L35:
 254:Drivers/STM32F1xx_HAL_Driver/Src/stm32f1xx_hal_gpio.c **** 
 225              		.loc 1 254 13 view .LVU71
 226              	.LVL18:
 257:Drivers/STM32F1xx_HAL_Driver/Src/stm32f1xx_hal_gpio.c ****           }
 227              		.loc 1 257 13 view .LVU72
 257:Drivers/STM32F1xx_HAL_Driver/Src/stm32f1xx_hal_gpio.c ****           }
 228              		.loc 1 257 25 is_stmt 0 view .LVU73
 229 00d8 0261     		str	r2, [r0, #16]
 254:Drivers/STM32F1xx_HAL_Driver/Src/stm32f1xx_hal_gpio.c **** 
 230              		.loc 1 254 20 view .LVU74
 231 00da 0824     		movs	r4, #8
 232 00dc B6E7     		b	.L9
 233              	.LVL19:
 234              	.L26:
 270:Drivers/STM32F1xx_HAL_Driver/Src/stm32f1xx_hal_gpio.c ****           break;
 235              		.loc 1 270 18 view .LVU75
 236 00de 0024     		movs	r4, #0
 237              	.LVL20:
 270:Drivers/STM32F1xx_HAL_Driver/Src/stm32f1xx_hal_gpio.c ****           break;
 238              		.loc 1 270 18 view .LVU76
 239 00e0 B4E7     		b	.L9
 240              	.LVL21:
 241              	.L27:
 250:Drivers/STM32F1xx_HAL_Driver/Src/stm32f1xx_hal_gpio.c ****           }
 242              		.loc 1 250 20 view .LVU77
 243 00e2 0424     		movs	r4, #4
 244              	.LVL22:
 250:Drivers/STM32F1xx_HAL_Driver/Src/stm32f1xx_hal_gpio.c ****           }
 245              		.loc 1 250 20 view .LVU78
 246 00e4 B2E7     		b	.L9
 247              	.LVL23:
ARM GAS  C:\Users\vmyhr\AppData\Local\Temp\ccl2YoCZ.s 			page 11


 248              	.L15:
 280:Drivers/STM32F1xx_HAL_Driver/Src/stm32f1xx_hal_gpio.c ****       registeroffset = (iocurrent < GPIO_PIN_8) ? (position << 2u) : ((position - 8u) << 2u);
 249              		.loc 1 280 67 discriminator 2 view .LVU79
 250 00e6 061D     		adds	r6, r0, #4
 251              	.LVL24:
 281:Drivers/STM32F1xx_HAL_Driver/Src/stm32f1xx_hal_gpio.c **** 
 252              		.loc 1 281 7 is_stmt 1 view .LVU80
 281:Drivers/STM32F1xx_HAL_Driver/Src/stm32f1xx_hal_gpio.c **** 
 253              		.loc 1 281 81 is_stmt 0 discriminator 2 view .LVU81
 254 00e8 ACF10802 		sub	r2, ip, #8
 255              	.LVL25:
 281:Drivers/STM32F1xx_HAL_Driver/Src/stm32f1xx_hal_gpio.c **** 
 256              		.loc 1 281 68 discriminator 2 view .LVU82
 257 00ec 9200     		lsls	r2, r2, #2
 258 00ee B3E7     		b	.L16
 259              	.LVL26:
 260              	.L36:
 261              		.loc 1 294 9 discriminator 7 view .LVU83
 262 00f0 0323     		movs	r3, #3
 263 00f2 00E0     		b	.L17
 264              	.L28:
 265              		.loc 1 294 9 discriminator 2 view .LVU84
 266 00f4 0023     		movs	r3, #0
 267              	.L17:
 268              		.loc 1 294 9 discriminator 16 view .LVU85
 269 00f6 AB40     		lsls	r3, r3, r5
 270 00f8 3343     		orrs	r3, r3, r6
 271              	.LVL27:
 295:Drivers/STM32F1xx_HAL_Driver/Src/stm32f1xx_hal_gpio.c ****         AFIO->EXTICR[position >> 2u] = temp;
 272              		.loc 1 295 9 is_stmt 1 view .LVU86
 273              		.loc 1 295 38 is_stmt 0 view .LVU87
 274 00fa 0232     		adds	r2, r2, #2
 275 00fc 444D     		ldr	r5, .L38+12
 276 00fe 45F82230 		str	r3, [r5, r2, lsl #2]
 296:Drivers/STM32F1xx_HAL_Driver/Src/stm32f1xx_hal_gpio.c **** 
 297:Drivers/STM32F1xx_HAL_Driver/Src/stm32f1xx_hal_gpio.c **** 
 298:Drivers/STM32F1xx_HAL_Driver/Src/stm32f1xx_hal_gpio.c ****         /* Enable or disable the rising trigger */
 299:Drivers/STM32F1xx_HAL_Driver/Src/stm32f1xx_hal_gpio.c ****         if ((GPIO_Init->Mode & RISING_EDGE) == RISING_EDGE)
 277              		.loc 1 299 9 is_stmt 1 view .LVU88
 278              		.loc 1 299 23 is_stmt 0 view .LVU89
 279 0102 4B68     		ldr	r3, [r1, #4]
 280              	.LVL28:
 281              		.loc 1 299 12 view .LVU90
 282 0104 13F4801F 		tst	r3, #1048576
 283 0108 62D0     		beq	.L18
 300:Drivers/STM32F1xx_HAL_Driver/Src/stm32f1xx_hal_gpio.c ****         {
 301:Drivers/STM32F1xx_HAL_Driver/Src/stm32f1xx_hal_gpio.c ****           SET_BIT(EXTI->RTSR, iocurrent);
 284              		.loc 1 301 11 is_stmt 1 view .LVU91
 285 010a 434A     		ldr	r2, .L38+20
 286              	.LVL29:
 287              		.loc 1 301 11 is_stmt 0 view .LVU92
 288 010c 9368     		ldr	r3, [r2, #8]
 289 010e 43EA0E03 		orr	r3, r3, lr
 290 0112 9360     		str	r3, [r2, #8]
 291              	.LVL30:
 292              	.L19:
 302:Drivers/STM32F1xx_HAL_Driver/Src/stm32f1xx_hal_gpio.c ****         }
ARM GAS  C:\Users\vmyhr\AppData\Local\Temp\ccl2YoCZ.s 			page 12


 303:Drivers/STM32F1xx_HAL_Driver/Src/stm32f1xx_hal_gpio.c ****         else
 304:Drivers/STM32F1xx_HAL_Driver/Src/stm32f1xx_hal_gpio.c ****         {
 305:Drivers/STM32F1xx_HAL_Driver/Src/stm32f1xx_hal_gpio.c ****           CLEAR_BIT(EXTI->RTSR, iocurrent);
 306:Drivers/STM32F1xx_HAL_Driver/Src/stm32f1xx_hal_gpio.c ****         }
 307:Drivers/STM32F1xx_HAL_Driver/Src/stm32f1xx_hal_gpio.c **** 
 308:Drivers/STM32F1xx_HAL_Driver/Src/stm32f1xx_hal_gpio.c ****         /* Enable or disable the falling trigger */
 309:Drivers/STM32F1xx_HAL_Driver/Src/stm32f1xx_hal_gpio.c ****         if ((GPIO_Init->Mode & FALLING_EDGE) == FALLING_EDGE)
 293              		.loc 1 309 9 is_stmt 1 view .LVU93
 294              		.loc 1 309 23 is_stmt 0 view .LVU94
 295 0114 4B68     		ldr	r3, [r1, #4]
 296              		.loc 1 309 12 view .LVU95
 297 0116 13F4001F 		tst	r3, #2097152
 298 011a 5FD0     		beq	.L20
 310:Drivers/STM32F1xx_HAL_Driver/Src/stm32f1xx_hal_gpio.c ****         {
 311:Drivers/STM32F1xx_HAL_Driver/Src/stm32f1xx_hal_gpio.c ****           SET_BIT(EXTI->FTSR, iocurrent);
 299              		.loc 1 311 11 is_stmt 1 view .LVU96
 300 011c 3E4A     		ldr	r2, .L38+20
 301 011e D368     		ldr	r3, [r2, #12]
 302 0120 43EA0E03 		orr	r3, r3, lr
 303 0124 D360     		str	r3, [r2, #12]
 304              	.L21:
 312:Drivers/STM32F1xx_HAL_Driver/Src/stm32f1xx_hal_gpio.c ****         }
 313:Drivers/STM32F1xx_HAL_Driver/Src/stm32f1xx_hal_gpio.c ****         else
 314:Drivers/STM32F1xx_HAL_Driver/Src/stm32f1xx_hal_gpio.c ****         {
 315:Drivers/STM32F1xx_HAL_Driver/Src/stm32f1xx_hal_gpio.c ****           CLEAR_BIT(EXTI->FTSR, iocurrent);
 316:Drivers/STM32F1xx_HAL_Driver/Src/stm32f1xx_hal_gpio.c ****         }
 317:Drivers/STM32F1xx_HAL_Driver/Src/stm32f1xx_hal_gpio.c **** 
 318:Drivers/STM32F1xx_HAL_Driver/Src/stm32f1xx_hal_gpio.c ****         /* Configure the event mask */
 319:Drivers/STM32F1xx_HAL_Driver/Src/stm32f1xx_hal_gpio.c ****         if ((GPIO_Init->Mode & GPIO_MODE_EVT) == GPIO_MODE_EVT)
 305              		.loc 1 319 9 view .LVU97
 306              		.loc 1 319 23 is_stmt 0 view .LVU98
 307 0126 4B68     		ldr	r3, [r1, #4]
 308              		.loc 1 319 12 view .LVU99
 309 0128 13F4003F 		tst	r3, #131072
 310 012c 5CD0     		beq	.L22
 320:Drivers/STM32F1xx_HAL_Driver/Src/stm32f1xx_hal_gpio.c ****         {
 321:Drivers/STM32F1xx_HAL_Driver/Src/stm32f1xx_hal_gpio.c ****           SET_BIT(EXTI->EMR, iocurrent);
 311              		.loc 1 321 11 is_stmt 1 view .LVU100
 312 012e 3A4A     		ldr	r2, .L38+20
 313 0130 5368     		ldr	r3, [r2, #4]
 314 0132 43EA0E03 		orr	r3, r3, lr
 315 0136 5360     		str	r3, [r2, #4]
 316              	.L23:
 322:Drivers/STM32F1xx_HAL_Driver/Src/stm32f1xx_hal_gpio.c ****         }
 323:Drivers/STM32F1xx_HAL_Driver/Src/stm32f1xx_hal_gpio.c ****         else
 324:Drivers/STM32F1xx_HAL_Driver/Src/stm32f1xx_hal_gpio.c ****         {
 325:Drivers/STM32F1xx_HAL_Driver/Src/stm32f1xx_hal_gpio.c ****           CLEAR_BIT(EXTI->EMR, iocurrent);
 326:Drivers/STM32F1xx_HAL_Driver/Src/stm32f1xx_hal_gpio.c ****         }
 327:Drivers/STM32F1xx_HAL_Driver/Src/stm32f1xx_hal_gpio.c **** 
 328:Drivers/STM32F1xx_HAL_Driver/Src/stm32f1xx_hal_gpio.c ****         /* Configure the interrupt mask */
 329:Drivers/STM32F1xx_HAL_Driver/Src/stm32f1xx_hal_gpio.c ****         if ((GPIO_Init->Mode & GPIO_MODE_IT) == GPIO_MODE_IT)
 317              		.loc 1 329 9 view .LVU101
 318              		.loc 1 329 23 is_stmt 0 view .LVU102
 319 0138 4B68     		ldr	r3, [r1, #4]
 320              		.loc 1 329 12 view .LVU103
 321 013a 13F4803F 		tst	r3, #65536
 322 013e 59D0     		beq	.L24
ARM GAS  C:\Users\vmyhr\AppData\Local\Temp\ccl2YoCZ.s 			page 13


 330:Drivers/STM32F1xx_HAL_Driver/Src/stm32f1xx_hal_gpio.c ****         {
 331:Drivers/STM32F1xx_HAL_Driver/Src/stm32f1xx_hal_gpio.c ****           SET_BIT(EXTI->IMR, iocurrent);
 323              		.loc 1 331 11 is_stmt 1 view .LVU104
 324 0140 354A     		ldr	r2, .L38+20
 325 0142 1368     		ldr	r3, [r2]
 326 0144 43EA0E03 		orr	r3, r3, lr
 327 0148 1360     		str	r3, [r2]
 328              	.LVL31:
 329              	.L3:
 332:Drivers/STM32F1xx_HAL_Driver/Src/stm32f1xx_hal_gpio.c ****         }
 333:Drivers/STM32F1xx_HAL_Driver/Src/stm32f1xx_hal_gpio.c ****         else
 334:Drivers/STM32F1xx_HAL_Driver/Src/stm32f1xx_hal_gpio.c ****         {
 335:Drivers/STM32F1xx_HAL_Driver/Src/stm32f1xx_hal_gpio.c ****           CLEAR_BIT(EXTI->IMR, iocurrent);
 336:Drivers/STM32F1xx_HAL_Driver/Src/stm32f1xx_hal_gpio.c ****         }
 337:Drivers/STM32F1xx_HAL_Driver/Src/stm32f1xx_hal_gpio.c ****       }
 338:Drivers/STM32F1xx_HAL_Driver/Src/stm32f1xx_hal_gpio.c ****     }
 339:Drivers/STM32F1xx_HAL_Driver/Src/stm32f1xx_hal_gpio.c **** 
 340:Drivers/STM32F1xx_HAL_Driver/Src/stm32f1xx_hal_gpio.c **** 	position++;
 330              		.loc 1 340 2 view .LVU105
 331              		.loc 1 340 10 is_stmt 0 view .LVU106
 332 014a 0CF1010C 		add	ip, ip, #1
 333              	.LVL32:
 334              	.L2:
 194:Drivers/STM32F1xx_HAL_Driver/Src/stm32f1xx_hal_gpio.c ****   {
 335              		.loc 1 194 41 is_stmt 1 view .LVU107
 194:Drivers/STM32F1xx_HAL_Driver/Src/stm32f1xx_hal_gpio.c ****   {
 336              		.loc 1 194 21 is_stmt 0 view .LVU108
 337 014e 0B68     		ldr	r3, [r1]
 194:Drivers/STM32F1xx_HAL_Driver/Src/stm32f1xx_hal_gpio.c ****   {
 338              		.loc 1 194 41 view .LVU109
 339 0150 33FA0CF2 		lsrs	r2, r3, ip
 340 0154 54D0     		beq	.L37
 197:Drivers/STM32F1xx_HAL_Driver/Src/stm32f1xx_hal_gpio.c **** 
 341              		.loc 1 197 5 is_stmt 1 view .LVU110
 197:Drivers/STM32F1xx_HAL_Driver/Src/stm32f1xx_hal_gpio.c **** 
 342              		.loc 1 197 16 is_stmt 0 view .LVU111
 343 0156 0122     		movs	r2, #1
 344 0158 02FA0CF2 		lsl	r2, r2, ip
 345              	.LVL33:
 200:Drivers/STM32F1xx_HAL_Driver/Src/stm32f1xx_hal_gpio.c **** 
 346              		.loc 1 200 5 is_stmt 1 view .LVU112
 200:Drivers/STM32F1xx_HAL_Driver/Src/stm32f1xx_hal_gpio.c **** 
 347              		.loc 1 200 15 is_stmt 0 view .LVU113
 348 015c 03EA020E 		and	lr, r3, r2
 349              	.LVL34:
 202:Drivers/STM32F1xx_HAL_Driver/Src/stm32f1xx_hal_gpio.c ****     {
 350              		.loc 1 202 5 is_stmt 1 view .LVU114
 202:Drivers/STM32F1xx_HAL_Driver/Src/stm32f1xx_hal_gpio.c ****     {
 351              		.loc 1 202 8 is_stmt 0 view .LVU115
 352 0160 32EA0303 		bics	r3, r2, r3
 353 0164 F1D1     		bne	.L3
 205:Drivers/STM32F1xx_HAL_Driver/Src/stm32f1xx_hal_gpio.c **** 
 354              		.loc 1 205 7 is_stmt 1 view .LVU116
 208:Drivers/STM32F1xx_HAL_Driver/Src/stm32f1xx_hal_gpio.c ****       {
 355              		.loc 1 208 7 view .LVU117
 208:Drivers/STM32F1xx_HAL_Driver/Src/stm32f1xx_hal_gpio.c ****       {
 356              		.loc 1 208 24 is_stmt 0 view .LVU118
ARM GAS  C:\Users\vmyhr\AppData\Local\Temp\ccl2YoCZ.s 			page 14


 357 0166 4B68     		ldr	r3, [r1, #4]
 208:Drivers/STM32F1xx_HAL_Driver/Src/stm32f1xx_hal_gpio.c ****       {
 358              		.loc 1 208 7 view .LVU119
 359 0168 122B     		cmp	r3, #18
 360 016a 3FF64EAF 		bhi	.L4
 361 016e 122B     		cmp	r3, #18
 362 0170 3FF66CAF 		bhi	.L9
 363 0174 01A5     		adr	r5, .L7
 364 0176 55F823F0 		ldr	pc, [r5, r3, lsl #2]
 365 017a 00BF     		.p2align 2
 366              	.L7:
 367 017c 3B000000 		.word	.L12+1
 368 0180 4B000000 		.word	.L11+1
 369 0184 CD000000 		.word	.L10+1
 370 0188 DF000000 		.word	.L26+1
 371 018c 4D000000 		.word	.L9+1
 372 0190 4D000000 		.word	.L9+1
 373 0194 4D000000 		.word	.L9+1
 374 0198 4D000000 		.word	.L9+1
 375 019c 4D000000 		.word	.L9+1
 376 01a0 4D000000 		.word	.L9+1
 377 01a4 4D000000 		.word	.L9+1
 378 01a8 4D000000 		.word	.L9+1
 379 01ac 4D000000 		.word	.L9+1
 380 01b0 4D000000 		.word	.L9+1
 381 01b4 4D000000 		.word	.L9+1
 382 01b8 4D000000 		.word	.L9+1
 383 01bc 4D000000 		.word	.L9+1
 384 01c0 C7000000 		.word	.L8+1
 385 01c4 D3000000 		.word	.L6+1
 386              	.LVL35:
 387              		.p2align 1
 388              	.L29:
 294:Drivers/STM32F1xx_HAL_Driver/Src/stm32f1xx_hal_gpio.c ****         AFIO->EXTICR[position >> 2u] = temp;
 389              		.loc 1 294 9 discriminator 4 view .LVU120
 390 01c8 0123     		movs	r3, #1
 391              	.LVL36:
 294:Drivers/STM32F1xx_HAL_Driver/Src/stm32f1xx_hal_gpio.c ****         AFIO->EXTICR[position >> 2u] = temp;
 392              		.loc 1 294 9 discriminator 4 view .LVU121
 393 01ca 94E7     		b	.L17
 394              	.LVL37:
 395              	.L30:
 294:Drivers/STM32F1xx_HAL_Driver/Src/stm32f1xx_hal_gpio.c ****         AFIO->EXTICR[position >> 2u] = temp;
 396              		.loc 1 294 9 discriminator 6 view .LVU122
 397 01cc 0223     		movs	r3, #2
 398 01ce 92E7     		b	.L17
 399              	.LVL38:
 400              	.L18:
 305:Drivers/STM32F1xx_HAL_Driver/Src/stm32f1xx_hal_gpio.c ****         }
 401              		.loc 1 305 11 is_stmt 1 view .LVU123
 402 01d0 114A     		ldr	r2, .L38+20
 403              	.LVL39:
 305:Drivers/STM32F1xx_HAL_Driver/Src/stm32f1xx_hal_gpio.c ****         }
 404              		.loc 1 305 11 is_stmt 0 view .LVU124
 405 01d2 9368     		ldr	r3, [r2, #8]
 406 01d4 23EA0E03 		bic	r3, r3, lr
 407 01d8 9360     		str	r3, [r2, #8]
ARM GAS  C:\Users\vmyhr\AppData\Local\Temp\ccl2YoCZ.s 			page 15


 408              	.LVL40:
 305:Drivers/STM32F1xx_HAL_Driver/Src/stm32f1xx_hal_gpio.c ****         }
 409              		.loc 1 305 11 view .LVU125
 410 01da 9BE7     		b	.L19
 411              	.L20:
 315:Drivers/STM32F1xx_HAL_Driver/Src/stm32f1xx_hal_gpio.c ****         }
 412              		.loc 1 315 11 is_stmt 1 view .LVU126
 413 01dc 0E4A     		ldr	r2, .L38+20
 414 01de D368     		ldr	r3, [r2, #12]
 415 01e0 23EA0E03 		bic	r3, r3, lr
 416 01e4 D360     		str	r3, [r2, #12]
 417 01e6 9EE7     		b	.L21
 418              	.L22:
 325:Drivers/STM32F1xx_HAL_Driver/Src/stm32f1xx_hal_gpio.c ****         }
 419              		.loc 1 325 11 view .LVU127
 420 01e8 0B4A     		ldr	r2, .L38+20
 421 01ea 5368     		ldr	r3, [r2, #4]
 422 01ec 23EA0E03 		bic	r3, r3, lr
 423 01f0 5360     		str	r3, [r2, #4]
 424 01f2 A1E7     		b	.L23
 425              	.L24:
 335:Drivers/STM32F1xx_HAL_Driver/Src/stm32f1xx_hal_gpio.c ****         }
 426              		.loc 1 335 11 view .LVU128
 427 01f4 084A     		ldr	r2, .L38+20
 428 01f6 1368     		ldr	r3, [r2]
 429 01f8 23EA0E03 		bic	r3, r3, lr
 430 01fc 1360     		str	r3, [r2]
 431 01fe A4E7     		b	.L3
 432              	.LVL41:
 433              	.L37:
 341:Drivers/STM32F1xx_HAL_Driver/Src/stm32f1xx_hal_gpio.c ****   }
 342:Drivers/STM32F1xx_HAL_Driver/Src/stm32f1xx_hal_gpio.c **** }
 434              		.loc 1 342 1 is_stmt 0 view .LVU129
 435 0200 02B0     		add	sp, sp, #8
 436              		.cfi_def_cfa_offset 16
 437              		@ sp needed
 438 0202 70BD     		pop	{r4, r5, r6, pc}
 439              	.LVL42:
 440              	.L39:
 441              		.loc 1 342 1 view .LVU130
 442              		.align	2
 443              	.L38:
 444 0204 00002210 		.word	270663680
 445 0208 00003110 		.word	271646720
 446 020c 00100240 		.word	1073876992
 447 0210 00000140 		.word	1073807360
 448 0214 00080140 		.word	1073809408
 449 0218 00040140 		.word	1073808384
 450              		.cfi_endproc
 451              	.LFE65:
 453              		.section	.text.HAL_GPIO_DeInit,"ax",%progbits
 454              		.align	1
 455              		.global	HAL_GPIO_DeInit
 456              		.syntax unified
 457              		.thumb
 458              		.thumb_func
 460              	HAL_GPIO_DeInit:
ARM GAS  C:\Users\vmyhr\AppData\Local\Temp\ccl2YoCZ.s 			page 16


 461              	.LVL43:
 462              	.LFB66:
 343:Drivers/STM32F1xx_HAL_Driver/Src/stm32f1xx_hal_gpio.c **** 
 344:Drivers/STM32F1xx_HAL_Driver/Src/stm32f1xx_hal_gpio.c **** /**
 345:Drivers/STM32F1xx_HAL_Driver/Src/stm32f1xx_hal_gpio.c ****   * @brief  De-initializes the GPIOx peripheral registers to their default reset values.
 346:Drivers/STM32F1xx_HAL_Driver/Src/stm32f1xx_hal_gpio.c ****   * @param  GPIOx: where x can be (A..G depending on device used) to select the GPIO peripheral
 347:Drivers/STM32F1xx_HAL_Driver/Src/stm32f1xx_hal_gpio.c ****   * @param  GPIO_Pin: specifies the port bit to be written.
 348:Drivers/STM32F1xx_HAL_Driver/Src/stm32f1xx_hal_gpio.c ****   *         This parameter can be one of GPIO_PIN_x where x can be (0..15).
 349:Drivers/STM32F1xx_HAL_Driver/Src/stm32f1xx_hal_gpio.c ****   * @retval None
 350:Drivers/STM32F1xx_HAL_Driver/Src/stm32f1xx_hal_gpio.c ****   */
 351:Drivers/STM32F1xx_HAL_Driver/Src/stm32f1xx_hal_gpio.c **** void HAL_GPIO_DeInit(GPIO_TypeDef  *GPIOx, uint32_t GPIO_Pin)
 352:Drivers/STM32F1xx_HAL_Driver/Src/stm32f1xx_hal_gpio.c **** {
 463              		.loc 1 352 1 is_stmt 1 view -0
 464              		.cfi_startproc
 465              		@ args = 0, pretend = 0, frame = 0
 466              		@ frame_needed = 0, uses_anonymous_args = 0
 353:Drivers/STM32F1xx_HAL_Driver/Src/stm32f1xx_hal_gpio.c ****   uint32_t position = 0x00u;
 467              		.loc 1 353 3 view .LVU132
 354:Drivers/STM32F1xx_HAL_Driver/Src/stm32f1xx_hal_gpio.c ****   uint32_t iocurrent;
 468              		.loc 1 354 3 view .LVU133
 355:Drivers/STM32F1xx_HAL_Driver/Src/stm32f1xx_hal_gpio.c ****   uint32_t tmp;
 469              		.loc 1 355 3 view .LVU134
 356:Drivers/STM32F1xx_HAL_Driver/Src/stm32f1xx_hal_gpio.c ****   __IO uint32_t *configregister; /* Store the address of CRL or CRH register based on pin number */
 470              		.loc 1 356 3 view .LVU135
 357:Drivers/STM32F1xx_HAL_Driver/Src/stm32f1xx_hal_gpio.c ****   uint32_t registeroffset;
 471              		.loc 1 357 3 view .LVU136
 358:Drivers/STM32F1xx_HAL_Driver/Src/stm32f1xx_hal_gpio.c **** 
 359:Drivers/STM32F1xx_HAL_Driver/Src/stm32f1xx_hal_gpio.c ****   /* Check the parameters */
 360:Drivers/STM32F1xx_HAL_Driver/Src/stm32f1xx_hal_gpio.c ****   assert_param(IS_GPIO_ALL_INSTANCE(GPIOx));
 472              		.loc 1 360 3 view .LVU137
 361:Drivers/STM32F1xx_HAL_Driver/Src/stm32f1xx_hal_gpio.c ****   assert_param(IS_GPIO_PIN(GPIO_Pin));
 473              		.loc 1 361 3 view .LVU138
 362:Drivers/STM32F1xx_HAL_Driver/Src/stm32f1xx_hal_gpio.c **** 
 363:Drivers/STM32F1xx_HAL_Driver/Src/stm32f1xx_hal_gpio.c ****   /* Configure the port pins */
 364:Drivers/STM32F1xx_HAL_Driver/Src/stm32f1xx_hal_gpio.c ****   while ((GPIO_Pin >> position) != 0u)
 474              		.loc 1 364 3 view .LVU139
 353:Drivers/STM32F1xx_HAL_Driver/Src/stm32f1xx_hal_gpio.c ****   uint32_t iocurrent;
 475              		.loc 1 353 12 is_stmt 0 view .LVU140
 476 0000 0022     		movs	r2, #0
 477              		.loc 1 364 9 view .LVU141
 478 0002 6BE0     		b	.L53
 479              	.LVL44:
 480              	.L60:
 481              		.cfi_def_cfa_offset 20
 482              		.cfi_offset 4, -20
 483              		.cfi_offset 5, -16
 484              		.cfi_offset 6, -12
 485              		.cfi_offset 7, -8
 486              		.cfi_offset 14, -4
 365:Drivers/STM32F1xx_HAL_Driver/Src/stm32f1xx_hal_gpio.c ****   {
 366:Drivers/STM32F1xx_HAL_Driver/Src/stm32f1xx_hal_gpio.c ****     /* Get current io position */
 367:Drivers/STM32F1xx_HAL_Driver/Src/stm32f1xx_hal_gpio.c ****     iocurrent = (GPIO_Pin) & (1uL << position);
 368:Drivers/STM32F1xx_HAL_Driver/Src/stm32f1xx_hal_gpio.c **** 
 369:Drivers/STM32F1xx_HAL_Driver/Src/stm32f1xx_hal_gpio.c ****     if (iocurrent)
 370:Drivers/STM32F1xx_HAL_Driver/Src/stm32f1xx_hal_gpio.c ****     {
 371:Drivers/STM32F1xx_HAL_Driver/Src/stm32f1xx_hal_gpio.c ****       /*------------------------- EXTI Mode Configuration --------------------*/
 372:Drivers/STM32F1xx_HAL_Driver/Src/stm32f1xx_hal_gpio.c ****       /* Clear the External Interrupt or Event for the current IO */
ARM GAS  C:\Users\vmyhr\AppData\Local\Temp\ccl2YoCZ.s 			page 17


 373:Drivers/STM32F1xx_HAL_Driver/Src/stm32f1xx_hal_gpio.c **** 
 374:Drivers/STM32F1xx_HAL_Driver/Src/stm32f1xx_hal_gpio.c ****       tmp = AFIO->EXTICR[position >> 2u];
 375:Drivers/STM32F1xx_HAL_Driver/Src/stm32f1xx_hal_gpio.c ****       tmp &= 0x0FuL << (4u * (position & 0x03u));
 376:Drivers/STM32F1xx_HAL_Driver/Src/stm32f1xx_hal_gpio.c ****       if (tmp == (GPIO_GET_INDEX(GPIOx) << (4u * (position & 0x03u))))
 487              		.loc 1 376 19 discriminator 7 view .LVU142
 488 0004 0325     		movs	r5, #3
 489 0006 00E0     		b	.L43
 490              	.L48:
 491              		.loc 1 376 19 discriminator 2 view .LVU143
 492 0008 0025     		movs	r5, #0
 493              	.L43:
 494              		.loc 1 376 41 discriminator 16 view .LVU144
 495 000a 05FA04F4 		lsl	r4, r5, r4
 496              		.loc 1 376 10 discriminator 16 view .LVU145
 497 000e 6445     		cmp	r4, ip
 498 0010 42D0     		beq	.L58
 499              	.LVL45:
 500              	.L44:
 377:Drivers/STM32F1xx_HAL_Driver/Src/stm32f1xx_hal_gpio.c ****       {
 378:Drivers/STM32F1xx_HAL_Driver/Src/stm32f1xx_hal_gpio.c ****         /* Clear EXTI line configuration */
 379:Drivers/STM32F1xx_HAL_Driver/Src/stm32f1xx_hal_gpio.c ****         CLEAR_BIT(EXTI->IMR, (uint32_t)iocurrent);
 380:Drivers/STM32F1xx_HAL_Driver/Src/stm32f1xx_hal_gpio.c ****         CLEAR_BIT(EXTI->EMR, (uint32_t)iocurrent);
 381:Drivers/STM32F1xx_HAL_Driver/Src/stm32f1xx_hal_gpio.c **** 
 382:Drivers/STM32F1xx_HAL_Driver/Src/stm32f1xx_hal_gpio.c ****         /* Clear Rising Falling edge configuration */
 383:Drivers/STM32F1xx_HAL_Driver/Src/stm32f1xx_hal_gpio.c ****         CLEAR_BIT(EXTI->FTSR, (uint32_t)iocurrent);
 384:Drivers/STM32F1xx_HAL_Driver/Src/stm32f1xx_hal_gpio.c ****         CLEAR_BIT(EXTI->RTSR, (uint32_t)iocurrent);
 385:Drivers/STM32F1xx_HAL_Driver/Src/stm32f1xx_hal_gpio.c ****         
 386:Drivers/STM32F1xx_HAL_Driver/Src/stm32f1xx_hal_gpio.c ****         tmp = 0x0FuL << (4u * (position & 0x03u));
 387:Drivers/STM32F1xx_HAL_Driver/Src/stm32f1xx_hal_gpio.c ****         CLEAR_BIT(AFIO->EXTICR[position >> 2u], tmp);
 388:Drivers/STM32F1xx_HAL_Driver/Src/stm32f1xx_hal_gpio.c ****       }
 389:Drivers/STM32F1xx_HAL_Driver/Src/stm32f1xx_hal_gpio.c ****       /*------------------------- GPIO Mode Configuration --------------------*/
 390:Drivers/STM32F1xx_HAL_Driver/Src/stm32f1xx_hal_gpio.c ****       /* Check if the current bit belongs to first half or last half of the pin count number
 391:Drivers/STM32F1xx_HAL_Driver/Src/stm32f1xx_hal_gpio.c ****        in order to address CRH or CRL register */
 392:Drivers/STM32F1xx_HAL_Driver/Src/stm32f1xx_hal_gpio.c ****       configregister = (iocurrent < GPIO_PIN_8) ? &GPIOx->CRL     : &GPIOx->CRH;
 501              		.loc 1 392 7 is_stmt 1 view .LVU146
 502              		.loc 1 392 67 is_stmt 0 view .LVU147
 503 0012 FF2B     		cmp	r3, #255
 504 0014 5AD8     		bhi	.L45
 505              		.loc 1 392 67 discriminator 1 view .LVU148
 506 0016 8646     		mov	lr, r0
 507              	.LVL46:
 393:Drivers/STM32F1xx_HAL_Driver/Src/stm32f1xx_hal_gpio.c ****       registeroffset = (iocurrent < GPIO_PIN_8) ? (position << 2u) : ((position - 8u) << 2u);
 508              		.loc 1 393 7 is_stmt 1 view .LVU149
 509              		.loc 1 393 68 is_stmt 0 discriminator 1 view .LVU150
 510 0018 9500     		lsls	r5, r2, #2
 511              	.L46:
 512              	.LVL47:
 394:Drivers/STM32F1xx_HAL_Driver/Src/stm32f1xx_hal_gpio.c **** 
 395:Drivers/STM32F1xx_HAL_Driver/Src/stm32f1xx_hal_gpio.c ****       /* CRL/CRH default value is floating input(0x04) shifted to correct position */
 396:Drivers/STM32F1xx_HAL_Driver/Src/stm32f1xx_hal_gpio.c ****       MODIFY_REG(*configregister, ((GPIO_CRL_MODE0 | GPIO_CRL_CNF0) << registeroffset), GPIO_CRL_CN
 513              		.loc 1 396 7 is_stmt 1 view .LVU151
 514 001a DEF80040 		ldr	r4, [lr]
 515 001e 4FF00F0C 		mov	ip, #15
 516 0022 0CFA05FC 		lsl	ip, ip, r5
 517 0026 24EA0C04 		bic	r4, r4, ip
 518 002a 4FF0040C 		mov	ip, #4
 519 002e 0CFA05FC 		lsl	ip, ip, r5
ARM GAS  C:\Users\vmyhr\AppData\Local\Temp\ccl2YoCZ.s 			page 18


 520 0032 44EA0C04 		orr	r4, r4, ip
 521 0036 CEF80040 		str	r4, [lr]
 397:Drivers/STM32F1xx_HAL_Driver/Src/stm32f1xx_hal_gpio.c **** 
 398:Drivers/STM32F1xx_HAL_Driver/Src/stm32f1xx_hal_gpio.c ****       /* ODR default value is 0 */
 399:Drivers/STM32F1xx_HAL_Driver/Src/stm32f1xx_hal_gpio.c ****       CLEAR_BIT(GPIOx->ODR, iocurrent);
 522              		.loc 1 399 7 view .LVU152
 523 003a C468     		ldr	r4, [r0, #12]
 524 003c 24EA0303 		bic	r3, r4, r3
 525              	.LVL48:
 526              		.loc 1 399 7 is_stmt 0 view .LVU153
 527 0040 C360     		str	r3, [r0, #12]
 528              	.L42:
 400:Drivers/STM32F1xx_HAL_Driver/Src/stm32f1xx_hal_gpio.c ****     }
 401:Drivers/STM32F1xx_HAL_Driver/Src/stm32f1xx_hal_gpio.c **** 
 402:Drivers/STM32F1xx_HAL_Driver/Src/stm32f1xx_hal_gpio.c ****     position++;
 529              		.loc 1 402 5 is_stmt 1 view .LVU154
 530              		.loc 1 402 13 is_stmt 0 view .LVU155
 531 0042 0132     		adds	r2, r2, #1
 532              	.LVL49:
 364:Drivers/STM32F1xx_HAL_Driver/Src/stm32f1xx_hal_gpio.c ****   {
 533              		.loc 1 364 33 is_stmt 1 view .LVU156
 534 0044 31FA02F3 		lsrs	r3, r1, r2
 535 0048 46D0     		beq	.L59
 367:Drivers/STM32F1xx_HAL_Driver/Src/stm32f1xx_hal_gpio.c **** 
 536              		.loc 1 367 5 view .LVU157
 367:Drivers/STM32F1xx_HAL_Driver/Src/stm32f1xx_hal_gpio.c **** 
 537              		.loc 1 367 35 is_stmt 0 view .LVU158
 538 004a 0123     		movs	r3, #1
 539 004c 9340     		lsls	r3, r3, r2
 540              	.LVL50:
 369:Drivers/STM32F1xx_HAL_Driver/Src/stm32f1xx_hal_gpio.c ****     {
 541              		.loc 1 369 5 is_stmt 1 view .LVU159
 369:Drivers/STM32F1xx_HAL_Driver/Src/stm32f1xx_hal_gpio.c ****     {
 542              		.loc 1 369 8 is_stmt 0 view .LVU160
 543 004e 0B40     		ands	r3, r3, r1
 544              	.LVL51:
 369:Drivers/STM32F1xx_HAL_Driver/Src/stm32f1xx_hal_gpio.c ****     {
 545              		.loc 1 369 8 view .LVU161
 546 0050 F7D0     		beq	.L42
 547              	.LVL52:
 548              	.L54:
 374:Drivers/STM32F1xx_HAL_Driver/Src/stm32f1xx_hal_gpio.c ****       tmp &= 0x0FuL << (4u * (position & 0x03u));
 549              		.loc 1 374 7 is_stmt 1 view .LVU162
 374:Drivers/STM32F1xx_HAL_Driver/Src/stm32f1xx_hal_gpio.c ****       tmp &= 0x0FuL << (4u * (position & 0x03u));
 550              		.loc 1 374 35 is_stmt 0 view .LVU163
 551 0052 9608     		lsrs	r6, r2, #2
 374:Drivers/STM32F1xx_HAL_Driver/Src/stm32f1xx_hal_gpio.c ****       tmp &= 0x0FuL << (4u * (position & 0x03u));
 552              		.loc 1 374 11 view .LVU164
 553 0054 B51C     		adds	r5, r6, #2
 554 0056 264C     		ldr	r4, .L63
 555 0058 54F82550 		ldr	r5, [r4, r5, lsl #2]
 556              	.LVL53:
 375:Drivers/STM32F1xx_HAL_Driver/Src/stm32f1xx_hal_gpio.c ****       if (tmp == (GPIO_GET_INDEX(GPIOx) << (4u * (position & 0x03u))))
 557              		.loc 1 375 7 is_stmt 1 view .LVU165
 375:Drivers/STM32F1xx_HAL_Driver/Src/stm32f1xx_hal_gpio.c ****       if (tmp == (GPIO_GET_INDEX(GPIOx) << (4u * (position & 0x03u))))
 558              		.loc 1 375 40 is_stmt 0 view .LVU166
 559 005c 02F00304 		and	r4, r2, #3
ARM GAS  C:\Users\vmyhr\AppData\Local\Temp\ccl2YoCZ.s 			page 19


 375:Drivers/STM32F1xx_HAL_Driver/Src/stm32f1xx_hal_gpio.c ****       if (tmp == (GPIO_GET_INDEX(GPIOx) << (4u * (position & 0x03u))))
 560              		.loc 1 375 28 view .LVU167
 561 0060 A400     		lsls	r4, r4, #2
 375:Drivers/STM32F1xx_HAL_Driver/Src/stm32f1xx_hal_gpio.c ****       if (tmp == (GPIO_GET_INDEX(GPIOx) << (4u * (position & 0x03u))))
 562              		.loc 1 375 21 view .LVU168
 563 0062 4FF00F0C 		mov	ip, #15
 564 0066 0CFA04FE 		lsl	lr, ip, r4
 375:Drivers/STM32F1xx_HAL_Driver/Src/stm32f1xx_hal_gpio.c ****       if (tmp == (GPIO_GET_INDEX(GPIOx) << (4u * (position & 0x03u))))
 565              		.loc 1 375 11 view .LVU169
 566 006a 0EEA050C 		and	ip, lr, r5
 567              	.LVL54:
 376:Drivers/STM32F1xx_HAL_Driver/Src/stm32f1xx_hal_gpio.c ****       {
 568              		.loc 1 376 7 is_stmt 1 view .LVU170
 376:Drivers/STM32F1xx_HAL_Driver/Src/stm32f1xx_hal_gpio.c ****       {
 569              		.loc 1 376 19 is_stmt 0 view .LVU171
 570 006e 214D     		ldr	r5, .L63+4
 571 0070 A842     		cmp	r0, r5
 572 0072 C9D0     		beq	.L48
 376:Drivers/STM32F1xx_HAL_Driver/Src/stm32f1xx_hal_gpio.c ****       {
 573              		.loc 1 376 19 discriminator 1 view .LVU172
 574 0074 05F58065 		add	r5, r5, #1024
 575 0078 A842     		cmp	r0, r5
 576 007a 09D0     		beq	.L49
 376:Drivers/STM32F1xx_HAL_Driver/Src/stm32f1xx_hal_gpio.c ****       {
 577              		.loc 1 376 19 discriminator 3 view .LVU173
 578 007c 05F58065 		add	r5, r5, #1024
 579 0080 A842     		cmp	r0, r5
 580 0082 07D0     		beq	.L50
 376:Drivers/STM32F1xx_HAL_Driver/Src/stm32f1xx_hal_gpio.c ****       {
 581              		.loc 1 376 19 discriminator 5 view .LVU174
 582 0084 05F58065 		add	r5, r5, #1024
 583 0088 A842     		cmp	r0, r5
 584 008a BBD0     		beq	.L60
 376:Drivers/STM32F1xx_HAL_Driver/Src/stm32f1xx_hal_gpio.c ****       {
 585              		.loc 1 376 19 discriminator 8 view .LVU175
 586 008c 0425     		movs	r5, #4
 587 008e BCE7     		b	.L43
 588              	.L49:
 376:Drivers/STM32F1xx_HAL_Driver/Src/stm32f1xx_hal_gpio.c ****       {
 589              		.loc 1 376 19 discriminator 4 view .LVU176
 590 0090 0125     		movs	r5, #1
 591 0092 BAE7     		b	.L43
 592              	.L50:
 376:Drivers/STM32F1xx_HAL_Driver/Src/stm32f1xx_hal_gpio.c ****       {
 593              		.loc 1 376 19 discriminator 6 view .LVU177
 594 0094 0225     		movs	r5, #2
 595 0096 B8E7     		b	.L43
 596              	.L58:
 379:Drivers/STM32F1xx_HAL_Driver/Src/stm32f1xx_hal_gpio.c ****         CLEAR_BIT(EXTI->EMR, (uint32_t)iocurrent);
 597              		.loc 1 379 9 is_stmt 1 view .LVU178
 598 0098 174C     		ldr	r4, .L63+8
 599 009a 2568     		ldr	r5, [r4]
 600 009c 25EA0305 		bic	r5, r5, r3
 601 00a0 2560     		str	r5, [r4]
 380:Drivers/STM32F1xx_HAL_Driver/Src/stm32f1xx_hal_gpio.c **** 
 602              		.loc 1 380 9 view .LVU179
 603 00a2 6568     		ldr	r5, [r4, #4]
ARM GAS  C:\Users\vmyhr\AppData\Local\Temp\ccl2YoCZ.s 			page 20


 604 00a4 25EA0305 		bic	r5, r5, r3
 605 00a8 6560     		str	r5, [r4, #4]
 383:Drivers/STM32F1xx_HAL_Driver/Src/stm32f1xx_hal_gpio.c ****         CLEAR_BIT(EXTI->RTSR, (uint32_t)iocurrent);
 606              		.loc 1 383 9 view .LVU180
 607 00aa E568     		ldr	r5, [r4, #12]
 608 00ac 25EA0305 		bic	r5, r5, r3
 609 00b0 E560     		str	r5, [r4, #12]
 384:Drivers/STM32F1xx_HAL_Driver/Src/stm32f1xx_hal_gpio.c ****         
 610              		.loc 1 384 9 view .LVU181
 611 00b2 A568     		ldr	r5, [r4, #8]
 612 00b4 25EA0305 		bic	r5, r5, r3
 613 00b8 A560     		str	r5, [r4, #8]
 386:Drivers/STM32F1xx_HAL_Driver/Src/stm32f1xx_hal_gpio.c ****         CLEAR_BIT(AFIO->EXTICR[position >> 2u], tmp);
 614              		.loc 1 386 9 view .LVU182
 615              	.LVL55:
 387:Drivers/STM32F1xx_HAL_Driver/Src/stm32f1xx_hal_gpio.c ****       }
 616              		.loc 1 387 9 view .LVU183
 617 00ba 0D4F     		ldr	r7, .L63
 618 00bc B41C     		adds	r4, r6, #2
 619 00be 57F82450 		ldr	r5, [r7, r4, lsl #2]
 620 00c2 25EA0E05 		bic	r5, r5, lr
 621 00c6 47F82450 		str	r5, [r7, r4, lsl #2]
 622 00ca A2E7     		b	.L44
 623              	.LVL56:
 624              	.L45:
 392:Drivers/STM32F1xx_HAL_Driver/Src/stm32f1xx_hal_gpio.c ****       registeroffset = (iocurrent < GPIO_PIN_8) ? (position << 2u) : ((position - 8u) << 2u);
 625              		.loc 1 392 67 is_stmt 0 discriminator 2 view .LVU184
 626 00cc 00F1040E 		add	lr, r0, #4
 627              	.LVL57:
 393:Drivers/STM32F1xx_HAL_Driver/Src/stm32f1xx_hal_gpio.c **** 
 628              		.loc 1 393 7 is_stmt 1 view .LVU185
 393:Drivers/STM32F1xx_HAL_Driver/Src/stm32f1xx_hal_gpio.c **** 
 629              		.loc 1 393 81 is_stmt 0 discriminator 2 view .LVU186
 630 00d0 A2F10805 		sub	r5, r2, #8
 393:Drivers/STM32F1xx_HAL_Driver/Src/stm32f1xx_hal_gpio.c **** 
 631              		.loc 1 393 68 discriminator 2 view .LVU187
 632 00d4 AD00     		lsls	r5, r5, #2
 633 00d6 A0E7     		b	.L46
 634              	.LVL58:
 635              	.L59:
 403:Drivers/STM32F1xx_HAL_Driver/Src/stm32f1xx_hal_gpio.c ****   }
 404:Drivers/STM32F1xx_HAL_Driver/Src/stm32f1xx_hal_gpio.c **** }
 636              		.loc 1 404 1 view .LVU188
 637 00d8 F0BD     		pop	{r4, r5, r6, r7, pc}
 638              	.LVL59:
 639              	.L62:
 640              		.cfi_def_cfa_offset 0
 641              		.cfi_restore 4
 642              		.cfi_restore 5
 643              		.cfi_restore 6
 644              		.cfi_restore 7
 645              		.cfi_restore 14
 402:Drivers/STM32F1xx_HAL_Driver/Src/stm32f1xx_hal_gpio.c ****   }
 646              		.loc 1 402 5 is_stmt 1 view .LVU189
 402:Drivers/STM32F1xx_HAL_Driver/Src/stm32f1xx_hal_gpio.c ****   }
 647              		.loc 1 402 13 is_stmt 0 view .LVU190
 648 00da 0132     		adds	r2, r2, #1
ARM GAS  C:\Users\vmyhr\AppData\Local\Temp\ccl2YoCZ.s 			page 21


 649              	.LVL60:
 650              	.L53:
 364:Drivers/STM32F1xx_HAL_Driver/Src/stm32f1xx_hal_gpio.c ****   {
 651              		.loc 1 364 33 is_stmt 1 view .LVU191
 652 00dc 31FA02F3 		lsrs	r3, r1, r2
 653 00e0 05D0     		beq	.L61
 367:Drivers/STM32F1xx_HAL_Driver/Src/stm32f1xx_hal_gpio.c **** 
 654              		.loc 1 367 5 view .LVU192
 367:Drivers/STM32F1xx_HAL_Driver/Src/stm32f1xx_hal_gpio.c **** 
 655              		.loc 1 367 35 is_stmt 0 view .LVU193
 656 00e2 0123     		movs	r3, #1
 657 00e4 9340     		lsls	r3, r3, r2
 658              	.LVL61:
 369:Drivers/STM32F1xx_HAL_Driver/Src/stm32f1xx_hal_gpio.c ****     {
 659              		.loc 1 369 5 is_stmt 1 view .LVU194
 369:Drivers/STM32F1xx_HAL_Driver/Src/stm32f1xx_hal_gpio.c ****     {
 660              		.loc 1 369 8 is_stmt 0 view .LVU195
 661 00e6 0B40     		ands	r3, r3, r1
 662              	.LVL62:
 369:Drivers/STM32F1xx_HAL_Driver/Src/stm32f1xx_hal_gpio.c ****     {
 663              		.loc 1 369 8 view .LVU196
 664 00e8 F7D0     		beq	.L62
 352:Drivers/STM32F1xx_HAL_Driver/Src/stm32f1xx_hal_gpio.c ****   uint32_t position = 0x00u;
 665              		.loc 1 352 1 view .LVU197
 666 00ea F0B5     		push	{r4, r5, r6, r7, lr}
 667              		.cfi_def_cfa_offset 20
 668              		.cfi_offset 4, -20
 669              		.cfi_offset 5, -16
 670              		.cfi_offset 6, -12
 671              		.cfi_offset 7, -8
 672              		.cfi_offset 14, -4
 673 00ec B1E7     		b	.L54
 674              	.LVL63:
 675              	.L61:
 676              		.cfi_def_cfa_offset 0
 677              		.cfi_restore 4
 678              		.cfi_restore 5
 679              		.cfi_restore 6
 680              		.cfi_restore 7
 681              		.cfi_restore 14
 352:Drivers/STM32F1xx_HAL_Driver/Src/stm32f1xx_hal_gpio.c ****   uint32_t position = 0x00u;
 682              		.loc 1 352 1 view .LVU198
 683 00ee 7047     		bx	lr
 684              	.L64:
 685              		.align	2
 686              	.L63:
 687 00f0 00000140 		.word	1073807360
 688 00f4 00080140 		.word	1073809408
 689 00f8 00040140 		.word	1073808384
 690              		.cfi_endproc
 691              	.LFE66:
 693              		.section	.text.HAL_GPIO_ReadPin,"ax",%progbits
 694              		.align	1
 695              		.global	HAL_GPIO_ReadPin
 696              		.syntax unified
 697              		.thumb
 698              		.thumb_func
ARM GAS  C:\Users\vmyhr\AppData\Local\Temp\ccl2YoCZ.s 			page 22


 700              	HAL_GPIO_ReadPin:
 701              	.LVL64:
 702              	.LFB67:
 405:Drivers/STM32F1xx_HAL_Driver/Src/stm32f1xx_hal_gpio.c **** 
 406:Drivers/STM32F1xx_HAL_Driver/Src/stm32f1xx_hal_gpio.c **** /**
 407:Drivers/STM32F1xx_HAL_Driver/Src/stm32f1xx_hal_gpio.c ****   * @}
 408:Drivers/STM32F1xx_HAL_Driver/Src/stm32f1xx_hal_gpio.c ****   */
 409:Drivers/STM32F1xx_HAL_Driver/Src/stm32f1xx_hal_gpio.c **** 
 410:Drivers/STM32F1xx_HAL_Driver/Src/stm32f1xx_hal_gpio.c **** /** @defgroup GPIO_Exported_Functions_Group2 IO operation functions
 411:Drivers/STM32F1xx_HAL_Driver/Src/stm32f1xx_hal_gpio.c ****  *  @brief   GPIO Read and Write
 412:Drivers/STM32F1xx_HAL_Driver/Src/stm32f1xx_hal_gpio.c ****  *
 413:Drivers/STM32F1xx_HAL_Driver/Src/stm32f1xx_hal_gpio.c **** @verbatim
 414:Drivers/STM32F1xx_HAL_Driver/Src/stm32f1xx_hal_gpio.c ****  ===============================================================================
 415:Drivers/STM32F1xx_HAL_Driver/Src/stm32f1xx_hal_gpio.c ****                        ##### IO operation functions #####
 416:Drivers/STM32F1xx_HAL_Driver/Src/stm32f1xx_hal_gpio.c ****  ===============================================================================
 417:Drivers/STM32F1xx_HAL_Driver/Src/stm32f1xx_hal_gpio.c ****   [..]
 418:Drivers/STM32F1xx_HAL_Driver/Src/stm32f1xx_hal_gpio.c ****     This subsection provides a set of functions allowing to manage the GPIOs.
 419:Drivers/STM32F1xx_HAL_Driver/Src/stm32f1xx_hal_gpio.c **** 
 420:Drivers/STM32F1xx_HAL_Driver/Src/stm32f1xx_hal_gpio.c **** @endverbatim
 421:Drivers/STM32F1xx_HAL_Driver/Src/stm32f1xx_hal_gpio.c ****   * @{
 422:Drivers/STM32F1xx_HAL_Driver/Src/stm32f1xx_hal_gpio.c ****   */
 423:Drivers/STM32F1xx_HAL_Driver/Src/stm32f1xx_hal_gpio.c **** 
 424:Drivers/STM32F1xx_HAL_Driver/Src/stm32f1xx_hal_gpio.c **** /**
 425:Drivers/STM32F1xx_HAL_Driver/Src/stm32f1xx_hal_gpio.c ****   * @brief  Reads the specified input port pin.
 426:Drivers/STM32F1xx_HAL_Driver/Src/stm32f1xx_hal_gpio.c ****   * @param  GPIOx: where x can be (A..G depending on device used) to select the GPIO peripheral
 427:Drivers/STM32F1xx_HAL_Driver/Src/stm32f1xx_hal_gpio.c ****   * @param  GPIO_Pin: specifies the port bit to read.
 428:Drivers/STM32F1xx_HAL_Driver/Src/stm32f1xx_hal_gpio.c ****   *         This parameter can be GPIO_PIN_x where x can be (0..15).
 429:Drivers/STM32F1xx_HAL_Driver/Src/stm32f1xx_hal_gpio.c ****   * @retval The input port pin value.
 430:Drivers/STM32F1xx_HAL_Driver/Src/stm32f1xx_hal_gpio.c ****   */
 431:Drivers/STM32F1xx_HAL_Driver/Src/stm32f1xx_hal_gpio.c **** GPIO_PinState HAL_GPIO_ReadPin(GPIO_TypeDef *GPIOx, uint16_t GPIO_Pin)
 432:Drivers/STM32F1xx_HAL_Driver/Src/stm32f1xx_hal_gpio.c **** {
 703              		.loc 1 432 1 is_stmt 1 view -0
 704              		.cfi_startproc
 705              		@ args = 0, pretend = 0, frame = 0
 706              		@ frame_needed = 0, uses_anonymous_args = 0
 707              		@ link register save eliminated.
 433:Drivers/STM32F1xx_HAL_Driver/Src/stm32f1xx_hal_gpio.c ****   GPIO_PinState bitstatus;
 708              		.loc 1 433 3 view .LVU200
 434:Drivers/STM32F1xx_HAL_Driver/Src/stm32f1xx_hal_gpio.c **** 
 435:Drivers/STM32F1xx_HAL_Driver/Src/stm32f1xx_hal_gpio.c ****   /* Check the parameters */
 436:Drivers/STM32F1xx_HAL_Driver/Src/stm32f1xx_hal_gpio.c ****   assert_param(IS_GPIO_PIN(GPIO_Pin));
 709              		.loc 1 436 3 view .LVU201
 437:Drivers/STM32F1xx_HAL_Driver/Src/stm32f1xx_hal_gpio.c **** 
 438:Drivers/STM32F1xx_HAL_Driver/Src/stm32f1xx_hal_gpio.c ****   if ((GPIOx->IDR & GPIO_Pin) != (uint32_t)GPIO_PIN_RESET)
 710              		.loc 1 438 3 view .LVU202
 711              		.loc 1 438 13 is_stmt 0 view .LVU203
 712 0000 8368     		ldr	r3, [r0, #8]
 713              		.loc 1 438 6 view .LVU204
 714 0002 1942     		tst	r1, r3
 715 0004 01D0     		beq	.L67
 439:Drivers/STM32F1xx_HAL_Driver/Src/stm32f1xx_hal_gpio.c ****   {
 440:Drivers/STM32F1xx_HAL_Driver/Src/stm32f1xx_hal_gpio.c ****     bitstatus = GPIO_PIN_SET;
 716              		.loc 1 440 15 view .LVU205
 717 0006 0120     		movs	r0, #1
 718              	.LVL65:
 719              		.loc 1 440 15 view .LVU206
 720 0008 7047     		bx	lr
ARM GAS  C:\Users\vmyhr\AppData\Local\Temp\ccl2YoCZ.s 			page 23


 721              	.LVL66:
 722              	.L67:
 441:Drivers/STM32F1xx_HAL_Driver/Src/stm32f1xx_hal_gpio.c ****   }
 442:Drivers/STM32F1xx_HAL_Driver/Src/stm32f1xx_hal_gpio.c ****   else
 443:Drivers/STM32F1xx_HAL_Driver/Src/stm32f1xx_hal_gpio.c ****   {
 444:Drivers/STM32F1xx_HAL_Driver/Src/stm32f1xx_hal_gpio.c ****     bitstatus = GPIO_PIN_RESET;
 723              		.loc 1 444 15 view .LVU207
 724 000a 0020     		movs	r0, #0
 725              	.LVL67:
 445:Drivers/STM32F1xx_HAL_Driver/Src/stm32f1xx_hal_gpio.c ****   }
 446:Drivers/STM32F1xx_HAL_Driver/Src/stm32f1xx_hal_gpio.c ****   return bitstatus;
 726              		.loc 1 446 3 is_stmt 1 view .LVU208
 447:Drivers/STM32F1xx_HAL_Driver/Src/stm32f1xx_hal_gpio.c **** }
 727              		.loc 1 447 1 is_stmt 0 view .LVU209
 728 000c 7047     		bx	lr
 729              		.cfi_endproc
 730              	.LFE67:
 732              		.section	.text.HAL_GPIO_WritePin,"ax",%progbits
 733              		.align	1
 734              		.global	HAL_GPIO_WritePin
 735              		.syntax unified
 736              		.thumb
 737              		.thumb_func
 739              	HAL_GPIO_WritePin:
 740              	.LVL68:
 741              	.LFB68:
 448:Drivers/STM32F1xx_HAL_Driver/Src/stm32f1xx_hal_gpio.c **** 
 449:Drivers/STM32F1xx_HAL_Driver/Src/stm32f1xx_hal_gpio.c **** /**
 450:Drivers/STM32F1xx_HAL_Driver/Src/stm32f1xx_hal_gpio.c ****   * @brief  Sets or clears the selected data port bit.
 451:Drivers/STM32F1xx_HAL_Driver/Src/stm32f1xx_hal_gpio.c ****   *
 452:Drivers/STM32F1xx_HAL_Driver/Src/stm32f1xx_hal_gpio.c ****   * @note   This function uses GPIOx_BSRR register to allow atomic read/modify
 453:Drivers/STM32F1xx_HAL_Driver/Src/stm32f1xx_hal_gpio.c ****   *         accesses. In this way, there is no risk of an IRQ occurring between
 454:Drivers/STM32F1xx_HAL_Driver/Src/stm32f1xx_hal_gpio.c ****   *         the read and the modify access.
 455:Drivers/STM32F1xx_HAL_Driver/Src/stm32f1xx_hal_gpio.c ****   *
 456:Drivers/STM32F1xx_HAL_Driver/Src/stm32f1xx_hal_gpio.c ****   * @param  GPIOx: where x can be (A..G depending on device used) to select the GPIO peripheral
 457:Drivers/STM32F1xx_HAL_Driver/Src/stm32f1xx_hal_gpio.c ****   * @param  GPIO_Pin: specifies the port bit to be written.
 458:Drivers/STM32F1xx_HAL_Driver/Src/stm32f1xx_hal_gpio.c ****   *          This parameter can be one of GPIO_PIN_x where x can be (0..15).
 459:Drivers/STM32F1xx_HAL_Driver/Src/stm32f1xx_hal_gpio.c ****   * @param  PinState: specifies the value to be written to the selected bit.
 460:Drivers/STM32F1xx_HAL_Driver/Src/stm32f1xx_hal_gpio.c ****   *          This parameter can be one of the GPIO_PinState enum values:
 461:Drivers/STM32F1xx_HAL_Driver/Src/stm32f1xx_hal_gpio.c ****   *            @arg GPIO_PIN_RESET: to clear the port pin
 462:Drivers/STM32F1xx_HAL_Driver/Src/stm32f1xx_hal_gpio.c ****   *            @arg GPIO_PIN_SET: to set the port pin
 463:Drivers/STM32F1xx_HAL_Driver/Src/stm32f1xx_hal_gpio.c ****   * @retval None
 464:Drivers/STM32F1xx_HAL_Driver/Src/stm32f1xx_hal_gpio.c ****   */
 465:Drivers/STM32F1xx_HAL_Driver/Src/stm32f1xx_hal_gpio.c **** void HAL_GPIO_WritePin(GPIO_TypeDef *GPIOx, uint16_t GPIO_Pin, GPIO_PinState PinState)
 466:Drivers/STM32F1xx_HAL_Driver/Src/stm32f1xx_hal_gpio.c **** {
 742              		.loc 1 466 1 is_stmt 1 view -0
 743              		.cfi_startproc
 744              		@ args = 0, pretend = 0, frame = 0
 745              		@ frame_needed = 0, uses_anonymous_args = 0
 746              		@ link register save eliminated.
 467:Drivers/STM32F1xx_HAL_Driver/Src/stm32f1xx_hal_gpio.c ****   /* Check the parameters */
 468:Drivers/STM32F1xx_HAL_Driver/Src/stm32f1xx_hal_gpio.c ****   assert_param(IS_GPIO_PIN(GPIO_Pin));
 747              		.loc 1 468 3 view .LVU211
 469:Drivers/STM32F1xx_HAL_Driver/Src/stm32f1xx_hal_gpio.c ****   assert_param(IS_GPIO_PIN_ACTION(PinState));
 748              		.loc 1 469 3 view .LVU212
 470:Drivers/STM32F1xx_HAL_Driver/Src/stm32f1xx_hal_gpio.c **** 
 471:Drivers/STM32F1xx_HAL_Driver/Src/stm32f1xx_hal_gpio.c ****   if (PinState != GPIO_PIN_RESET)
ARM GAS  C:\Users\vmyhr\AppData\Local\Temp\ccl2YoCZ.s 			page 24


 749              		.loc 1 471 3 view .LVU213
 750              		.loc 1 471 6 is_stmt 0 view .LVU214
 751 0000 0AB1     		cbz	r2, .L69
 472:Drivers/STM32F1xx_HAL_Driver/Src/stm32f1xx_hal_gpio.c ****   {
 473:Drivers/STM32F1xx_HAL_Driver/Src/stm32f1xx_hal_gpio.c ****     GPIOx->BSRR = GPIO_Pin;
 752              		.loc 1 473 5 is_stmt 1 view .LVU215
 753              		.loc 1 473 17 is_stmt 0 view .LVU216
 754 0002 0161     		str	r1, [r0, #16]
 755 0004 7047     		bx	lr
 756              	.L69:
 474:Drivers/STM32F1xx_HAL_Driver/Src/stm32f1xx_hal_gpio.c ****   }
 475:Drivers/STM32F1xx_HAL_Driver/Src/stm32f1xx_hal_gpio.c ****   else
 476:Drivers/STM32F1xx_HAL_Driver/Src/stm32f1xx_hal_gpio.c ****   {
 477:Drivers/STM32F1xx_HAL_Driver/Src/stm32f1xx_hal_gpio.c ****     GPIOx->BSRR = (uint32_t)GPIO_Pin << 16u;
 757              		.loc 1 477 5 is_stmt 1 view .LVU217
 758              		.loc 1 477 38 is_stmt 0 view .LVU218
 759 0006 0904     		lsls	r1, r1, #16
 760              	.LVL69:
 761              		.loc 1 477 17 view .LVU219
 762 0008 0161     		str	r1, [r0, #16]
 478:Drivers/STM32F1xx_HAL_Driver/Src/stm32f1xx_hal_gpio.c ****   }
 479:Drivers/STM32F1xx_HAL_Driver/Src/stm32f1xx_hal_gpio.c **** }
 763              		.loc 1 479 1 view .LVU220
 764 000a 7047     		bx	lr
 765              		.cfi_endproc
 766              	.LFE68:
 768              		.section	.text.HAL_GPIO_TogglePin,"ax",%progbits
 769              		.align	1
 770              		.global	HAL_GPIO_TogglePin
 771              		.syntax unified
 772              		.thumb
 773              		.thumb_func
 775              	HAL_GPIO_TogglePin:
 776              	.LVL70:
 777              	.LFB69:
 480:Drivers/STM32F1xx_HAL_Driver/Src/stm32f1xx_hal_gpio.c **** 
 481:Drivers/STM32F1xx_HAL_Driver/Src/stm32f1xx_hal_gpio.c **** /**
 482:Drivers/STM32F1xx_HAL_Driver/Src/stm32f1xx_hal_gpio.c ****   * @brief  Toggles the specified GPIO pin
 483:Drivers/STM32F1xx_HAL_Driver/Src/stm32f1xx_hal_gpio.c ****   * @param  GPIOx: where x can be (A..G depending on device used) to select the GPIO peripheral
 484:Drivers/STM32F1xx_HAL_Driver/Src/stm32f1xx_hal_gpio.c ****   * @param  GPIO_Pin: Specifies the pins to be toggled.
 485:Drivers/STM32F1xx_HAL_Driver/Src/stm32f1xx_hal_gpio.c ****   * @retval None
 486:Drivers/STM32F1xx_HAL_Driver/Src/stm32f1xx_hal_gpio.c ****   */
 487:Drivers/STM32F1xx_HAL_Driver/Src/stm32f1xx_hal_gpio.c **** void HAL_GPIO_TogglePin(GPIO_TypeDef *GPIOx, uint16_t GPIO_Pin)
 488:Drivers/STM32F1xx_HAL_Driver/Src/stm32f1xx_hal_gpio.c **** {
 778              		.loc 1 488 1 is_stmt 1 view -0
 779              		.cfi_startproc
 780              		@ args = 0, pretend = 0, frame = 0
 781              		@ frame_needed = 0, uses_anonymous_args = 0
 782              		@ link register save eliminated.
 489:Drivers/STM32F1xx_HAL_Driver/Src/stm32f1xx_hal_gpio.c ****   uint32_t odr;
 783              		.loc 1 489 3 view .LVU222
 490:Drivers/STM32F1xx_HAL_Driver/Src/stm32f1xx_hal_gpio.c **** 
 491:Drivers/STM32F1xx_HAL_Driver/Src/stm32f1xx_hal_gpio.c ****   /* Check the parameters */
 492:Drivers/STM32F1xx_HAL_Driver/Src/stm32f1xx_hal_gpio.c ****   assert_param(IS_GPIO_PIN(GPIO_Pin));
 784              		.loc 1 492 3 view .LVU223
 493:Drivers/STM32F1xx_HAL_Driver/Src/stm32f1xx_hal_gpio.c **** 
 494:Drivers/STM32F1xx_HAL_Driver/Src/stm32f1xx_hal_gpio.c ****   /* get current Output Data Register value */
ARM GAS  C:\Users\vmyhr\AppData\Local\Temp\ccl2YoCZ.s 			page 25


 495:Drivers/STM32F1xx_HAL_Driver/Src/stm32f1xx_hal_gpio.c ****   odr = GPIOx->ODR;
 785              		.loc 1 495 3 view .LVU224
 786              		.loc 1 495 7 is_stmt 0 view .LVU225
 787 0000 C368     		ldr	r3, [r0, #12]
 788              	.LVL71:
 496:Drivers/STM32F1xx_HAL_Driver/Src/stm32f1xx_hal_gpio.c **** 
 497:Drivers/STM32F1xx_HAL_Driver/Src/stm32f1xx_hal_gpio.c ****   /* Set selected pins that were at low level, and reset ones that were high */
 498:Drivers/STM32F1xx_HAL_Driver/Src/stm32f1xx_hal_gpio.c ****   GPIOx->BSRR = ((odr & GPIO_Pin) << GPIO_NUMBER) | (~odr & GPIO_Pin);
 789              		.loc 1 498 3 is_stmt 1 view .LVU226
 790              		.loc 1 498 23 is_stmt 0 view .LVU227
 791 0002 01EA0302 		and	r2, r1, r3
 792              		.loc 1 498 59 view .LVU228
 793 0006 21EA0301 		bic	r1, r1, r3
 794              	.LVL72:
 795              		.loc 1 498 51 view .LVU229
 796 000a 41EA0241 		orr	r1, r1, r2, lsl #16
 797              		.loc 1 498 15 view .LVU230
 798 000e 0161     		str	r1, [r0, #16]
 499:Drivers/STM32F1xx_HAL_Driver/Src/stm32f1xx_hal_gpio.c **** }
 799              		.loc 1 499 1 view .LVU231
 800 0010 7047     		bx	lr
 801              		.cfi_endproc
 802              	.LFE69:
 804              		.section	.text.HAL_GPIO_LockPin,"ax",%progbits
 805              		.align	1
 806              		.global	HAL_GPIO_LockPin
 807              		.syntax unified
 808              		.thumb
 809              		.thumb_func
 811              	HAL_GPIO_LockPin:
 812              	.LVL73:
 813              	.LFB70:
 500:Drivers/STM32F1xx_HAL_Driver/Src/stm32f1xx_hal_gpio.c **** 
 501:Drivers/STM32F1xx_HAL_Driver/Src/stm32f1xx_hal_gpio.c **** /**
 502:Drivers/STM32F1xx_HAL_Driver/Src/stm32f1xx_hal_gpio.c **** * @brief  Locks GPIO Pins configuration registers.
 503:Drivers/STM32F1xx_HAL_Driver/Src/stm32f1xx_hal_gpio.c **** * @note   The locking mechanism allows the IO configuration to be frozen. When the LOCK sequence
 504:Drivers/STM32F1xx_HAL_Driver/Src/stm32f1xx_hal_gpio.c **** *         has been applied on a port bit, it is no longer possible to modify the value of the port 
 505:Drivers/STM32F1xx_HAL_Driver/Src/stm32f1xx_hal_gpio.c **** *         the next reset.
 506:Drivers/STM32F1xx_HAL_Driver/Src/stm32f1xx_hal_gpio.c **** * @param  GPIOx: where x can be (A..G depending on device used) to select the GPIO peripheral
 507:Drivers/STM32F1xx_HAL_Driver/Src/stm32f1xx_hal_gpio.c **** * @param  GPIO_Pin: specifies the port bit to be locked.
 508:Drivers/STM32F1xx_HAL_Driver/Src/stm32f1xx_hal_gpio.c **** *         This parameter can be any combination of GPIO_Pin_x where x can be (0..15).
 509:Drivers/STM32F1xx_HAL_Driver/Src/stm32f1xx_hal_gpio.c **** * @retval None
 510:Drivers/STM32F1xx_HAL_Driver/Src/stm32f1xx_hal_gpio.c **** */
 511:Drivers/STM32F1xx_HAL_Driver/Src/stm32f1xx_hal_gpio.c **** HAL_StatusTypeDef HAL_GPIO_LockPin(GPIO_TypeDef *GPIOx, uint16_t GPIO_Pin)
 512:Drivers/STM32F1xx_HAL_Driver/Src/stm32f1xx_hal_gpio.c **** {
 814              		.loc 1 512 1 is_stmt 1 view -0
 815              		.cfi_startproc
 816              		@ args = 0, pretend = 0, frame = 8
 817              		@ frame_needed = 0, uses_anonymous_args = 0
 818              		@ link register save eliminated.
 819              		.loc 1 512 1 is_stmt 0 view .LVU233
 820 0000 82B0     		sub	sp, sp, #8
 821              		.cfi_def_cfa_offset 8
 513:Drivers/STM32F1xx_HAL_Driver/Src/stm32f1xx_hal_gpio.c ****   __IO uint32_t tmp = GPIO_LCKR_LCKK;
 822              		.loc 1 513 3 is_stmt 1 view .LVU234
 823              		.loc 1 513 17 is_stmt 0 view .LVU235
 824 0002 4FF48033 		mov	r3, #65536
ARM GAS  C:\Users\vmyhr\AppData\Local\Temp\ccl2YoCZ.s 			page 26


 825 0006 0193     		str	r3, [sp, #4]
 514:Drivers/STM32F1xx_HAL_Driver/Src/stm32f1xx_hal_gpio.c **** 
 515:Drivers/STM32F1xx_HAL_Driver/Src/stm32f1xx_hal_gpio.c ****   /* Check the parameters */
 516:Drivers/STM32F1xx_HAL_Driver/Src/stm32f1xx_hal_gpio.c ****   assert_param(IS_GPIO_LOCK_INSTANCE(GPIOx));
 826              		.loc 1 516 3 is_stmt 1 view .LVU236
 517:Drivers/STM32F1xx_HAL_Driver/Src/stm32f1xx_hal_gpio.c ****   assert_param(IS_GPIO_PIN(GPIO_Pin));
 827              		.loc 1 517 3 view .LVU237
 518:Drivers/STM32F1xx_HAL_Driver/Src/stm32f1xx_hal_gpio.c **** 
 519:Drivers/STM32F1xx_HAL_Driver/Src/stm32f1xx_hal_gpio.c ****   /* Apply lock key write sequence */
 520:Drivers/STM32F1xx_HAL_Driver/Src/stm32f1xx_hal_gpio.c ****   SET_BIT(tmp, GPIO_Pin);
 828              		.loc 1 520 3 view .LVU238
 829 0008 019B     		ldr	r3, [sp, #4]
 830 000a 0B43     		orrs	r3, r3, r1
 831 000c 0193     		str	r3, [sp, #4]
 521:Drivers/STM32F1xx_HAL_Driver/Src/stm32f1xx_hal_gpio.c ****   /* Set LCKx bit(s): LCKK='1' + LCK[15-0] */
 522:Drivers/STM32F1xx_HAL_Driver/Src/stm32f1xx_hal_gpio.c ****   GPIOx->LCKR = tmp;
 832              		.loc 1 522 3 view .LVU239
 833              		.loc 1 522 15 is_stmt 0 view .LVU240
 834 000e 019B     		ldr	r3, [sp, #4]
 835 0010 8361     		str	r3, [r0, #24]
 523:Drivers/STM32F1xx_HAL_Driver/Src/stm32f1xx_hal_gpio.c ****   /* Reset LCKx bit(s): LCKK='0' + LCK[15-0] */
 524:Drivers/STM32F1xx_HAL_Driver/Src/stm32f1xx_hal_gpio.c ****   GPIOx->LCKR = GPIO_Pin;
 836              		.loc 1 524 3 is_stmt 1 view .LVU241
 837              		.loc 1 524 15 is_stmt 0 view .LVU242
 838 0012 8161     		str	r1, [r0, #24]
 525:Drivers/STM32F1xx_HAL_Driver/Src/stm32f1xx_hal_gpio.c ****   /* Set LCKx bit(s): LCKK='1' + LCK[15-0] */
 526:Drivers/STM32F1xx_HAL_Driver/Src/stm32f1xx_hal_gpio.c ****   GPIOx->LCKR = tmp;
 839              		.loc 1 526 3 is_stmt 1 view .LVU243
 840              		.loc 1 526 15 is_stmt 0 view .LVU244
 841 0014 019B     		ldr	r3, [sp, #4]
 842 0016 8361     		str	r3, [r0, #24]
 527:Drivers/STM32F1xx_HAL_Driver/Src/stm32f1xx_hal_gpio.c ****   /* Read LCKK register. This read is mandatory to complete key lock sequence */
 528:Drivers/STM32F1xx_HAL_Driver/Src/stm32f1xx_hal_gpio.c ****   tmp = GPIOx->LCKR;
 843              		.loc 1 528 3 is_stmt 1 view .LVU245
 844              		.loc 1 528 14 is_stmt 0 view .LVU246
 845 0018 8369     		ldr	r3, [r0, #24]
 846              		.loc 1 528 7 view .LVU247
 847 001a 0193     		str	r3, [sp, #4]
 529:Drivers/STM32F1xx_HAL_Driver/Src/stm32f1xx_hal_gpio.c **** 
 530:Drivers/STM32F1xx_HAL_Driver/Src/stm32f1xx_hal_gpio.c ****   /* read again in order to confirm lock is active */
 531:Drivers/STM32F1xx_HAL_Driver/Src/stm32f1xx_hal_gpio.c ****   if ((uint32_t)(GPIOx->LCKR & GPIO_LCKR_LCKK))
 848              		.loc 1 531 3 is_stmt 1 view .LVU248
 849              		.loc 1 531 23 is_stmt 0 view .LVU249
 850 001c 8369     		ldr	r3, [r0, #24]
 851              		.loc 1 531 6 view .LVU250
 852 001e 13F4803F 		tst	r3, #65536
 853 0022 02D0     		beq	.L74
 532:Drivers/STM32F1xx_HAL_Driver/Src/stm32f1xx_hal_gpio.c ****   {
 533:Drivers/STM32F1xx_HAL_Driver/Src/stm32f1xx_hal_gpio.c ****     return HAL_OK;
 854              		.loc 1 533 12 view .LVU251
 855 0024 0020     		movs	r0, #0
 856              	.LVL74:
 857              	.L73:
 534:Drivers/STM32F1xx_HAL_Driver/Src/stm32f1xx_hal_gpio.c ****   }
 535:Drivers/STM32F1xx_HAL_Driver/Src/stm32f1xx_hal_gpio.c ****   else
 536:Drivers/STM32F1xx_HAL_Driver/Src/stm32f1xx_hal_gpio.c ****   {
 537:Drivers/STM32F1xx_HAL_Driver/Src/stm32f1xx_hal_gpio.c ****     return HAL_ERROR;
ARM GAS  C:\Users\vmyhr\AppData\Local\Temp\ccl2YoCZ.s 			page 27


 538:Drivers/STM32F1xx_HAL_Driver/Src/stm32f1xx_hal_gpio.c ****   }
 539:Drivers/STM32F1xx_HAL_Driver/Src/stm32f1xx_hal_gpio.c **** }
 858              		.loc 1 539 1 view .LVU252
 859 0026 02B0     		add	sp, sp, #8
 860              		.cfi_remember_state
 861              		.cfi_def_cfa_offset 0
 862              		@ sp needed
 863 0028 7047     		bx	lr
 864              	.LVL75:
 865              	.L74:
 866              		.cfi_restore_state
 537:Drivers/STM32F1xx_HAL_Driver/Src/stm32f1xx_hal_gpio.c ****   }
 867              		.loc 1 537 12 view .LVU253
 868 002a 0120     		movs	r0, #1
 869              	.LVL76:
 537:Drivers/STM32F1xx_HAL_Driver/Src/stm32f1xx_hal_gpio.c ****   }
 870              		.loc 1 537 12 view .LVU254
 871 002c FBE7     		b	.L73
 872              		.cfi_endproc
 873              	.LFE70:
 875              		.section	.text.HAL_GPIO_EXTI_Callback,"ax",%progbits
 876              		.align	1
 877              		.weak	HAL_GPIO_EXTI_Callback
 878              		.syntax unified
 879              		.thumb
 880              		.thumb_func
 882              	HAL_GPIO_EXTI_Callback:
 883              	.LVL77:
 884              	.LFB72:
 540:Drivers/STM32F1xx_HAL_Driver/Src/stm32f1xx_hal_gpio.c **** 
 541:Drivers/STM32F1xx_HAL_Driver/Src/stm32f1xx_hal_gpio.c **** /**
 542:Drivers/STM32F1xx_HAL_Driver/Src/stm32f1xx_hal_gpio.c ****   * @brief  This function handles EXTI interrupt request.
 543:Drivers/STM32F1xx_HAL_Driver/Src/stm32f1xx_hal_gpio.c ****   * @param  GPIO_Pin: Specifies the pins connected EXTI line
 544:Drivers/STM32F1xx_HAL_Driver/Src/stm32f1xx_hal_gpio.c ****   * @retval None
 545:Drivers/STM32F1xx_HAL_Driver/Src/stm32f1xx_hal_gpio.c ****   */
 546:Drivers/STM32F1xx_HAL_Driver/Src/stm32f1xx_hal_gpio.c **** void HAL_GPIO_EXTI_IRQHandler(uint16_t GPIO_Pin)
 547:Drivers/STM32F1xx_HAL_Driver/Src/stm32f1xx_hal_gpio.c **** {
 548:Drivers/STM32F1xx_HAL_Driver/Src/stm32f1xx_hal_gpio.c ****   /* EXTI line interrupt detected */
 549:Drivers/STM32F1xx_HAL_Driver/Src/stm32f1xx_hal_gpio.c ****   if (__HAL_GPIO_EXTI_GET_IT(GPIO_Pin) != 0x00u)
 550:Drivers/STM32F1xx_HAL_Driver/Src/stm32f1xx_hal_gpio.c ****   {
 551:Drivers/STM32F1xx_HAL_Driver/Src/stm32f1xx_hal_gpio.c ****     __HAL_GPIO_EXTI_CLEAR_IT(GPIO_Pin);
 552:Drivers/STM32F1xx_HAL_Driver/Src/stm32f1xx_hal_gpio.c ****     HAL_GPIO_EXTI_Callback(GPIO_Pin);
 553:Drivers/STM32F1xx_HAL_Driver/Src/stm32f1xx_hal_gpio.c ****   }
 554:Drivers/STM32F1xx_HAL_Driver/Src/stm32f1xx_hal_gpio.c **** }
 555:Drivers/STM32F1xx_HAL_Driver/Src/stm32f1xx_hal_gpio.c **** 
 556:Drivers/STM32F1xx_HAL_Driver/Src/stm32f1xx_hal_gpio.c **** /**
 557:Drivers/STM32F1xx_HAL_Driver/Src/stm32f1xx_hal_gpio.c ****   * @brief  EXTI line detection callbacks.
 558:Drivers/STM32F1xx_HAL_Driver/Src/stm32f1xx_hal_gpio.c ****   * @param  GPIO_Pin: Specifies the pins connected EXTI line
 559:Drivers/STM32F1xx_HAL_Driver/Src/stm32f1xx_hal_gpio.c ****   * @retval None
 560:Drivers/STM32F1xx_HAL_Driver/Src/stm32f1xx_hal_gpio.c ****   */
 561:Drivers/STM32F1xx_HAL_Driver/Src/stm32f1xx_hal_gpio.c **** __weak void HAL_GPIO_EXTI_Callback(uint16_t GPIO_Pin)
 562:Drivers/STM32F1xx_HAL_Driver/Src/stm32f1xx_hal_gpio.c **** {
 885              		.loc 1 562 1 is_stmt 1 view -0
 886              		.cfi_startproc
 887              		@ args = 0, pretend = 0, frame = 0
 888              		@ frame_needed = 0, uses_anonymous_args = 0
 889              		@ link register save eliminated.
ARM GAS  C:\Users\vmyhr\AppData\Local\Temp\ccl2YoCZ.s 			page 28


 563:Drivers/STM32F1xx_HAL_Driver/Src/stm32f1xx_hal_gpio.c ****   /* Prevent unused argument(s) compilation warning */
 564:Drivers/STM32F1xx_HAL_Driver/Src/stm32f1xx_hal_gpio.c ****   UNUSED(GPIO_Pin);
 890              		.loc 1 564 3 view .LVU256
 565:Drivers/STM32F1xx_HAL_Driver/Src/stm32f1xx_hal_gpio.c ****   /* NOTE: This function Should not be modified, when the callback is needed,
 566:Drivers/STM32F1xx_HAL_Driver/Src/stm32f1xx_hal_gpio.c ****            the HAL_GPIO_EXTI_Callback could be implemented in the user file
 567:Drivers/STM32F1xx_HAL_Driver/Src/stm32f1xx_hal_gpio.c ****    */
 568:Drivers/STM32F1xx_HAL_Driver/Src/stm32f1xx_hal_gpio.c **** }
 891              		.loc 1 568 1 is_stmt 0 view .LVU257
 892 0000 7047     		bx	lr
 893              		.cfi_endproc
 894              	.LFE72:
 896              		.section	.text.HAL_GPIO_EXTI_IRQHandler,"ax",%progbits
 897              		.align	1
 898              		.global	HAL_GPIO_EXTI_IRQHandler
 899              		.syntax unified
 900              		.thumb
 901              		.thumb_func
 903              	HAL_GPIO_EXTI_IRQHandler:
 904              	.LVL78:
 905              	.LFB71:
 547:Drivers/STM32F1xx_HAL_Driver/Src/stm32f1xx_hal_gpio.c ****   /* EXTI line interrupt detected */
 906              		.loc 1 547 1 is_stmt 1 view -0
 907              		.cfi_startproc
 908              		@ args = 0, pretend = 0, frame = 0
 909              		@ frame_needed = 0, uses_anonymous_args = 0
 547:Drivers/STM32F1xx_HAL_Driver/Src/stm32f1xx_hal_gpio.c ****   /* EXTI line interrupt detected */
 910              		.loc 1 547 1 is_stmt 0 view .LVU259
 911 0000 08B5     		push	{r3, lr}
 912              		.cfi_def_cfa_offset 8
 913              		.cfi_offset 3, -8
 914              		.cfi_offset 14, -4
 549:Drivers/STM32F1xx_HAL_Driver/Src/stm32f1xx_hal_gpio.c ****   {
 915              		.loc 1 549 3 is_stmt 1 view .LVU260
 549:Drivers/STM32F1xx_HAL_Driver/Src/stm32f1xx_hal_gpio.c ****   {
 916              		.loc 1 549 7 is_stmt 0 view .LVU261
 917 0002 054B     		ldr	r3, .L81
 918 0004 5B69     		ldr	r3, [r3, #20]
 549:Drivers/STM32F1xx_HAL_Driver/Src/stm32f1xx_hal_gpio.c ****   {
 919              		.loc 1 549 6 view .LVU262
 920 0006 0342     		tst	r3, r0
 921 0008 00D1     		bne	.L80
 922              	.LVL79:
 923              	.L77:
 554:Drivers/STM32F1xx_HAL_Driver/Src/stm32f1xx_hal_gpio.c **** 
 924              		.loc 1 554 1 view .LVU263
 925 000a 08BD     		pop	{r3, pc}
 926              	.LVL80:
 927              	.L80:
 551:Drivers/STM32F1xx_HAL_Driver/Src/stm32f1xx_hal_gpio.c ****     HAL_GPIO_EXTI_Callback(GPIO_Pin);
 928              		.loc 1 551 5 is_stmt 1 view .LVU264
 929 000c 024B     		ldr	r3, .L81
 930 000e 5861     		str	r0, [r3, #20]
 552:Drivers/STM32F1xx_HAL_Driver/Src/stm32f1xx_hal_gpio.c ****   }
 931              		.loc 1 552 5 view .LVU265
 932 0010 FFF7FEFF 		bl	HAL_GPIO_EXTI_Callback
 933              	.LVL81:
 554:Drivers/STM32F1xx_HAL_Driver/Src/stm32f1xx_hal_gpio.c **** 
ARM GAS  C:\Users\vmyhr\AppData\Local\Temp\ccl2YoCZ.s 			page 29


 934              		.loc 1 554 1 is_stmt 0 view .LVU266
 935 0014 F9E7     		b	.L77
 936              	.L82:
 937 0016 00BF     		.align	2
 938              	.L81:
 939 0018 00040140 		.word	1073808384
 940              		.cfi_endproc
 941              	.LFE71:
 943              		.text
 944              	.Letext0:
 945              		.file 2 "C:/Users/vmyhr/AppData/Roaming/Code/User/globalStorage/bmd.stm32-for-vscode/@xpack-dev-to
 946              		.file 3 "C:/Users/vmyhr/AppData/Roaming/Code/User/globalStorage/bmd.stm32-for-vscode/@xpack-dev-to
 947              		.file 4 "Drivers/CMSIS/Device/ST/STM32F1xx/Include/stm32f103xb.h"
 948              		.file 5 "Drivers/STM32F1xx_HAL_Driver/Inc/stm32f1xx_hal_def.h"
 949              		.file 6 "Drivers/STM32F1xx_HAL_Driver/Inc/stm32f1xx_hal_gpio.h"
ARM GAS  C:\Users\vmyhr\AppData\Local\Temp\ccl2YoCZ.s 			page 30

