ARM GAS  C:\Users\vmyhr\AppData\Local\Temp\ccCa5dBC.s 			page 1


   1              		.cpu cortex-m3
   2              		.arch armv7-m
   3              		.fpu softvfp
   4              		.eabi_attribute 20, 1
   5              		.eabi_attribute 21, 1
   6              		.eabi_attribute 23, 3
   7              		.eabi_attribute 24, 1
   8              		.eabi_attribute 25, 1
   9              		.eabi_attribute 26, 1
  10              		.eabi_attribute 30, 1
  11              		.eabi_attribute 34, 1
  12              		.eabi_attribute 18, 4
  13              		.file	"stm32f1xx_hal_msp.c"
  14              		.text
  15              	.Ltext0:
  16              		.cfi_sections	.debug_frame
  17              		.file 1 "Core/Src/stm32f1xx_hal_msp.c"
  18              		.section	.text.HAL_MspInit,"ax",%progbits
  19              		.align	1
  20              		.global	HAL_MspInit
  21              		.syntax unified
  22              		.thumb
  23              		.thumb_func
  25              	HAL_MspInit:
  26              	.LFB65:
   1:Core/Src/stm32f1xx_hal_msp.c **** /* USER CODE BEGIN Header */
   2:Core/Src/stm32f1xx_hal_msp.c **** /**
   3:Core/Src/stm32f1xx_hal_msp.c ****   ******************************************************************************
   4:Core/Src/stm32f1xx_hal_msp.c ****   * @file         stm32f1xx_hal_msp.c
   5:Core/Src/stm32f1xx_hal_msp.c ****   * @brief        This file provides code for the MSP Initialization
   6:Core/Src/stm32f1xx_hal_msp.c ****   *               and de-Initialization codes.
   7:Core/Src/stm32f1xx_hal_msp.c ****   ******************************************************************************
   8:Core/Src/stm32f1xx_hal_msp.c ****   * @attention
   9:Core/Src/stm32f1xx_hal_msp.c ****   *
  10:Core/Src/stm32f1xx_hal_msp.c ****   * Copyright (c) 2024 STMicroelectronics.
  11:Core/Src/stm32f1xx_hal_msp.c ****   * All rights reserved.
  12:Core/Src/stm32f1xx_hal_msp.c ****   *
  13:Core/Src/stm32f1xx_hal_msp.c ****   * This software is licensed under terms that can be found in the LICENSE file
  14:Core/Src/stm32f1xx_hal_msp.c ****   * in the root directory of this software component.
  15:Core/Src/stm32f1xx_hal_msp.c ****   * If no LICENSE file comes with this software, it is provided AS-IS.
  16:Core/Src/stm32f1xx_hal_msp.c ****   *
  17:Core/Src/stm32f1xx_hal_msp.c ****   ******************************************************************************
  18:Core/Src/stm32f1xx_hal_msp.c ****   */
  19:Core/Src/stm32f1xx_hal_msp.c **** /* USER CODE END Header */
  20:Core/Src/stm32f1xx_hal_msp.c **** 
  21:Core/Src/stm32f1xx_hal_msp.c **** /* Includes ------------------------------------------------------------------*/
  22:Core/Src/stm32f1xx_hal_msp.c **** #include "main.h"
  23:Core/Src/stm32f1xx_hal_msp.c **** 
  24:Core/Src/stm32f1xx_hal_msp.c **** /* USER CODE BEGIN Includes */
  25:Core/Src/stm32f1xx_hal_msp.c **** 
  26:Core/Src/stm32f1xx_hal_msp.c **** /* USER CODE END Includes */
  27:Core/Src/stm32f1xx_hal_msp.c **** 
  28:Core/Src/stm32f1xx_hal_msp.c **** /* Private typedef -----------------------------------------------------------*/
  29:Core/Src/stm32f1xx_hal_msp.c **** /* USER CODE BEGIN TD */
  30:Core/Src/stm32f1xx_hal_msp.c **** 
  31:Core/Src/stm32f1xx_hal_msp.c **** /* USER CODE END TD */
  32:Core/Src/stm32f1xx_hal_msp.c **** 
ARM GAS  C:\Users\vmyhr\AppData\Local\Temp\ccCa5dBC.s 			page 2


  33:Core/Src/stm32f1xx_hal_msp.c **** /* Private define ------------------------------------------------------------*/
  34:Core/Src/stm32f1xx_hal_msp.c **** /* USER CODE BEGIN Define */
  35:Core/Src/stm32f1xx_hal_msp.c **** 
  36:Core/Src/stm32f1xx_hal_msp.c **** /* USER CODE END Define */
  37:Core/Src/stm32f1xx_hal_msp.c **** 
  38:Core/Src/stm32f1xx_hal_msp.c **** /* Private macro -------------------------------------------------------------*/
  39:Core/Src/stm32f1xx_hal_msp.c **** /* USER CODE BEGIN Macro */
  40:Core/Src/stm32f1xx_hal_msp.c **** 
  41:Core/Src/stm32f1xx_hal_msp.c **** /* USER CODE END Macro */
  42:Core/Src/stm32f1xx_hal_msp.c **** 
  43:Core/Src/stm32f1xx_hal_msp.c **** /* Private variables ---------------------------------------------------------*/
  44:Core/Src/stm32f1xx_hal_msp.c **** /* USER CODE BEGIN PV */
  45:Core/Src/stm32f1xx_hal_msp.c **** 
  46:Core/Src/stm32f1xx_hal_msp.c **** /* USER CODE END PV */
  47:Core/Src/stm32f1xx_hal_msp.c **** 
  48:Core/Src/stm32f1xx_hal_msp.c **** /* Private function prototypes -----------------------------------------------*/
  49:Core/Src/stm32f1xx_hal_msp.c **** /* USER CODE BEGIN PFP */
  50:Core/Src/stm32f1xx_hal_msp.c **** 
  51:Core/Src/stm32f1xx_hal_msp.c **** /* USER CODE END PFP */
  52:Core/Src/stm32f1xx_hal_msp.c **** 
  53:Core/Src/stm32f1xx_hal_msp.c **** /* External functions --------------------------------------------------------*/
  54:Core/Src/stm32f1xx_hal_msp.c **** /* USER CODE BEGIN ExternalFunctions */
  55:Core/Src/stm32f1xx_hal_msp.c **** 
  56:Core/Src/stm32f1xx_hal_msp.c **** /* USER CODE END ExternalFunctions */
  57:Core/Src/stm32f1xx_hal_msp.c **** 
  58:Core/Src/stm32f1xx_hal_msp.c **** /* USER CODE BEGIN 0 */
  59:Core/Src/stm32f1xx_hal_msp.c **** 
  60:Core/Src/stm32f1xx_hal_msp.c **** /* USER CODE END 0 */
  61:Core/Src/stm32f1xx_hal_msp.c **** /**
  62:Core/Src/stm32f1xx_hal_msp.c ****   * Initializes the Global MSP.
  63:Core/Src/stm32f1xx_hal_msp.c ****   */
  64:Core/Src/stm32f1xx_hal_msp.c **** void HAL_MspInit(void)
  65:Core/Src/stm32f1xx_hal_msp.c **** {
  27              		.loc 1 65 1 view -0
  28              		.cfi_startproc
  29              		@ args = 0, pretend = 0, frame = 8
  30              		@ frame_needed = 0, uses_anonymous_args = 0
  31 0000 00B5     		push	{lr}
  32              		.cfi_def_cfa_offset 4
  33              		.cfi_offset 14, -4
  34 0002 83B0     		sub	sp, sp, #12
  35              		.cfi_def_cfa_offset 16
  66:Core/Src/stm32f1xx_hal_msp.c ****   /* USER CODE BEGIN MspInit 0 */
  67:Core/Src/stm32f1xx_hal_msp.c **** 
  68:Core/Src/stm32f1xx_hal_msp.c ****   /* USER CODE END MspInit 0 */
  69:Core/Src/stm32f1xx_hal_msp.c **** 
  70:Core/Src/stm32f1xx_hal_msp.c ****   __HAL_RCC_AFIO_CLK_ENABLE();
  36              		.loc 1 70 3 view .LVU1
  37              	.LBB2:
  38              		.loc 1 70 3 view .LVU2
  39              		.loc 1 70 3 view .LVU3
  40 0004 114B     		ldr	r3, .L3
  41 0006 9A69     		ldr	r2, [r3, #24]
  42 0008 42F00102 		orr	r2, r2, #1
  43 000c 9A61     		str	r2, [r3, #24]
  44              		.loc 1 70 3 view .LVU4
  45 000e 9A69     		ldr	r2, [r3, #24]
ARM GAS  C:\Users\vmyhr\AppData\Local\Temp\ccCa5dBC.s 			page 3


  46 0010 02F00102 		and	r2, r2, #1
  47 0014 0092     		str	r2, [sp]
  48              		.loc 1 70 3 view .LVU5
  49 0016 009A     		ldr	r2, [sp]
  50              	.LBE2:
  51              		.loc 1 70 3 view .LVU6
  71:Core/Src/stm32f1xx_hal_msp.c ****   __HAL_RCC_PWR_CLK_ENABLE();
  52              		.loc 1 71 3 view .LVU7
  53              	.LBB3:
  54              		.loc 1 71 3 view .LVU8
  55              		.loc 1 71 3 view .LVU9
  56 0018 DA69     		ldr	r2, [r3, #28]
  57 001a 42F08052 		orr	r2, r2, #268435456
  58 001e DA61     		str	r2, [r3, #28]
  59              		.loc 1 71 3 view .LVU10
  60 0020 DB69     		ldr	r3, [r3, #28]
  61 0022 03F08053 		and	r3, r3, #268435456
  62 0026 0193     		str	r3, [sp, #4]
  63              		.loc 1 71 3 view .LVU11
  64 0028 019B     		ldr	r3, [sp, #4]
  65              	.LBE3:
  66              		.loc 1 71 3 view .LVU12
  72:Core/Src/stm32f1xx_hal_msp.c **** 
  73:Core/Src/stm32f1xx_hal_msp.c ****   /* System interrupt init*/
  74:Core/Src/stm32f1xx_hal_msp.c ****   /* PendSV_IRQn interrupt configuration */
  75:Core/Src/stm32f1xx_hal_msp.c ****   HAL_NVIC_SetPriority(PendSV_IRQn, 15, 0);
  67              		.loc 1 75 3 view .LVU13
  68 002a 0022     		movs	r2, #0
  69 002c 0F21     		movs	r1, #15
  70 002e 6FF00100 		mvn	r0, #1
  71 0032 FFF7FEFF 		bl	HAL_NVIC_SetPriority
  72              	.LVL0:
  76:Core/Src/stm32f1xx_hal_msp.c **** 
  77:Core/Src/stm32f1xx_hal_msp.c ****   /** NOJTAG: JTAG-DP Disabled and SW-DP Enabled
  78:Core/Src/stm32f1xx_hal_msp.c ****   */
  79:Core/Src/stm32f1xx_hal_msp.c ****   __HAL_AFIO_REMAP_SWJ_NOJTAG();
  73              		.loc 1 79 3 view .LVU14
  74              	.LBB4:
  75              		.loc 1 79 3 view .LVU15
  76 0036 064A     		ldr	r2, .L3+4
  77 0038 5368     		ldr	r3, [r2, #4]
  78              	.LVL1:
  79              		.loc 1 79 3 view .LVU16
  80 003a 23F0E063 		bic	r3, r3, #117440512
  81              	.LVL2:
  82              		.loc 1 79 3 view .LVU17
  83 003e 43F00073 		orr	r3, r3, #33554432
  84              	.LVL3:
  85              		.loc 1 79 3 view .LVU18
  86 0042 5360     		str	r3, [r2, #4]
  87              	.LBE4:
  88              		.loc 1 79 3 view .LVU19
  80:Core/Src/stm32f1xx_hal_msp.c **** 
  81:Core/Src/stm32f1xx_hal_msp.c ****   /* USER CODE BEGIN MspInit 1 */
  82:Core/Src/stm32f1xx_hal_msp.c **** 
  83:Core/Src/stm32f1xx_hal_msp.c ****   /* USER CODE END MspInit 1 */
  84:Core/Src/stm32f1xx_hal_msp.c **** }
ARM GAS  C:\Users\vmyhr\AppData\Local\Temp\ccCa5dBC.s 			page 4


  89              		.loc 1 84 1 is_stmt 0 view .LVU20
  90 0044 03B0     		add	sp, sp, #12
  91              		.cfi_def_cfa_offset 4
  92              		@ sp needed
  93 0046 5DF804FB 		ldr	pc, [sp], #4
  94              	.L4:
  95 004a 00BF     		.align	2
  96              	.L3:
  97 004c 00100240 		.word	1073876992
  98 0050 00000140 		.word	1073807360
  99              		.cfi_endproc
 100              	.LFE65:
 102              		.section	.text.HAL_I2C_MspInit,"ax",%progbits
 103              		.align	1
 104              		.global	HAL_I2C_MspInit
 105              		.syntax unified
 106              		.thumb
 107              		.thumb_func
 109              	HAL_I2C_MspInit:
 110              	.LVL4:
 111              	.LFB66:
  85:Core/Src/stm32f1xx_hal_msp.c **** 
  86:Core/Src/stm32f1xx_hal_msp.c **** /**
  87:Core/Src/stm32f1xx_hal_msp.c **** * @brief I2C MSP Initialization
  88:Core/Src/stm32f1xx_hal_msp.c **** * This function configures the hardware resources used in this example
  89:Core/Src/stm32f1xx_hal_msp.c **** * @param hi2c: I2C handle pointer
  90:Core/Src/stm32f1xx_hal_msp.c **** * @retval None
  91:Core/Src/stm32f1xx_hal_msp.c **** */
  92:Core/Src/stm32f1xx_hal_msp.c **** void HAL_I2C_MspInit(I2C_HandleTypeDef* hi2c)
  93:Core/Src/stm32f1xx_hal_msp.c **** {
 112              		.loc 1 93 1 is_stmt 1 view -0
 113              		.cfi_startproc
 114              		@ args = 0, pretend = 0, frame = 24
 115              		@ frame_needed = 0, uses_anonymous_args = 0
 116              		.loc 1 93 1 is_stmt 0 view .LVU22
 117 0000 10B5     		push	{r4, lr}
 118              		.cfi_def_cfa_offset 8
 119              		.cfi_offset 4, -8
 120              		.cfi_offset 14, -4
 121 0002 86B0     		sub	sp, sp, #24
 122              		.cfi_def_cfa_offset 32
  94:Core/Src/stm32f1xx_hal_msp.c ****   GPIO_InitTypeDef GPIO_InitStruct = {0};
 123              		.loc 1 94 3 is_stmt 1 view .LVU23
 124              		.loc 1 94 20 is_stmt 0 view .LVU24
 125 0004 0023     		movs	r3, #0
 126 0006 0293     		str	r3, [sp, #8]
 127 0008 0393     		str	r3, [sp, #12]
 128 000a 0493     		str	r3, [sp, #16]
 129 000c 0593     		str	r3, [sp, #20]
  95:Core/Src/stm32f1xx_hal_msp.c ****   if(hi2c->Instance==I2C1)
 130              		.loc 1 95 3 is_stmt 1 view .LVU25
 131              		.loc 1 95 10 is_stmt 0 view .LVU26
 132 000e 0268     		ldr	r2, [r0]
 133              		.loc 1 95 5 view .LVU27
 134 0010 154B     		ldr	r3, .L9
 135 0012 9A42     		cmp	r2, r3
 136 0014 01D0     		beq	.L8
ARM GAS  C:\Users\vmyhr\AppData\Local\Temp\ccCa5dBC.s 			page 5


 137              	.LVL5:
 138              	.L5:
  96:Core/Src/stm32f1xx_hal_msp.c ****   {
  97:Core/Src/stm32f1xx_hal_msp.c ****   /* USER CODE BEGIN I2C1_MspInit 0 */
  98:Core/Src/stm32f1xx_hal_msp.c **** 
  99:Core/Src/stm32f1xx_hal_msp.c ****   /* USER CODE END I2C1_MspInit 0 */
 100:Core/Src/stm32f1xx_hal_msp.c **** 
 101:Core/Src/stm32f1xx_hal_msp.c ****     __HAL_RCC_GPIOB_CLK_ENABLE();
 102:Core/Src/stm32f1xx_hal_msp.c ****     /**I2C1 GPIO Configuration
 103:Core/Src/stm32f1xx_hal_msp.c ****     PB8     ------> I2C1_SCL
 104:Core/Src/stm32f1xx_hal_msp.c ****     PB9     ------> I2C1_SDA
 105:Core/Src/stm32f1xx_hal_msp.c ****     */
 106:Core/Src/stm32f1xx_hal_msp.c ****     GPIO_InitStruct.Pin = GPIO_PIN_8|GPIO_PIN_9;
 107:Core/Src/stm32f1xx_hal_msp.c ****     GPIO_InitStruct.Mode = GPIO_MODE_AF_OD;
 108:Core/Src/stm32f1xx_hal_msp.c ****     GPIO_InitStruct.Speed = GPIO_SPEED_FREQ_HIGH;
 109:Core/Src/stm32f1xx_hal_msp.c ****     HAL_GPIO_Init(GPIOB, &GPIO_InitStruct);
 110:Core/Src/stm32f1xx_hal_msp.c **** 
 111:Core/Src/stm32f1xx_hal_msp.c ****     __HAL_AFIO_REMAP_I2C1_ENABLE();
 112:Core/Src/stm32f1xx_hal_msp.c **** 
 113:Core/Src/stm32f1xx_hal_msp.c ****     /* Peripheral clock enable */
 114:Core/Src/stm32f1xx_hal_msp.c ****     __HAL_RCC_I2C1_CLK_ENABLE();
 115:Core/Src/stm32f1xx_hal_msp.c ****   /* USER CODE BEGIN I2C1_MspInit 1 */
 116:Core/Src/stm32f1xx_hal_msp.c **** 
 117:Core/Src/stm32f1xx_hal_msp.c ****   /* USER CODE END I2C1_MspInit 1 */
 118:Core/Src/stm32f1xx_hal_msp.c ****   }
 119:Core/Src/stm32f1xx_hal_msp.c **** 
 120:Core/Src/stm32f1xx_hal_msp.c **** }
 139              		.loc 1 120 1 view .LVU28
 140 0016 06B0     		add	sp, sp, #24
 141              		.cfi_remember_state
 142              		.cfi_def_cfa_offset 8
 143              		@ sp needed
 144 0018 10BD     		pop	{r4, pc}
 145              	.LVL6:
 146              	.L8:
 147              		.cfi_restore_state
 101:Core/Src/stm32f1xx_hal_msp.c ****     /**I2C1 GPIO Configuration
 148              		.loc 1 101 5 is_stmt 1 view .LVU29
 149              	.LBB5:
 101:Core/Src/stm32f1xx_hal_msp.c ****     /**I2C1 GPIO Configuration
 150              		.loc 1 101 5 view .LVU30
 101:Core/Src/stm32f1xx_hal_msp.c ****     /**I2C1 GPIO Configuration
 151              		.loc 1 101 5 view .LVU31
 152 001a 144C     		ldr	r4, .L9+4
 153 001c A369     		ldr	r3, [r4, #24]
 154 001e 43F00803 		orr	r3, r3, #8
 155 0022 A361     		str	r3, [r4, #24]
 101:Core/Src/stm32f1xx_hal_msp.c ****     /**I2C1 GPIO Configuration
 156              		.loc 1 101 5 view .LVU32
 157 0024 A369     		ldr	r3, [r4, #24]
 158 0026 03F00803 		and	r3, r3, #8
 159 002a 0093     		str	r3, [sp]
 101:Core/Src/stm32f1xx_hal_msp.c ****     /**I2C1 GPIO Configuration
 160              		.loc 1 101 5 view .LVU33
 161 002c 009B     		ldr	r3, [sp]
 162              	.LBE5:
 101:Core/Src/stm32f1xx_hal_msp.c ****     /**I2C1 GPIO Configuration
ARM GAS  C:\Users\vmyhr\AppData\Local\Temp\ccCa5dBC.s 			page 6


 163              		.loc 1 101 5 view .LVU34
 106:Core/Src/stm32f1xx_hal_msp.c ****     GPIO_InitStruct.Mode = GPIO_MODE_AF_OD;
 164              		.loc 1 106 5 view .LVU35
 106:Core/Src/stm32f1xx_hal_msp.c ****     GPIO_InitStruct.Mode = GPIO_MODE_AF_OD;
 165              		.loc 1 106 25 is_stmt 0 view .LVU36
 166 002e 4FF44073 		mov	r3, #768
 167 0032 0293     		str	r3, [sp, #8]
 107:Core/Src/stm32f1xx_hal_msp.c ****     GPIO_InitStruct.Speed = GPIO_SPEED_FREQ_HIGH;
 168              		.loc 1 107 5 is_stmt 1 view .LVU37
 107:Core/Src/stm32f1xx_hal_msp.c ****     GPIO_InitStruct.Speed = GPIO_SPEED_FREQ_HIGH;
 169              		.loc 1 107 26 is_stmt 0 view .LVU38
 170 0034 1223     		movs	r3, #18
 171 0036 0393     		str	r3, [sp, #12]
 108:Core/Src/stm32f1xx_hal_msp.c ****     HAL_GPIO_Init(GPIOB, &GPIO_InitStruct);
 172              		.loc 1 108 5 is_stmt 1 view .LVU39
 108:Core/Src/stm32f1xx_hal_msp.c ****     HAL_GPIO_Init(GPIOB, &GPIO_InitStruct);
 173              		.loc 1 108 27 is_stmt 0 view .LVU40
 174 0038 0323     		movs	r3, #3
 175 003a 0593     		str	r3, [sp, #20]
 109:Core/Src/stm32f1xx_hal_msp.c **** 
 176              		.loc 1 109 5 is_stmt 1 view .LVU41
 177 003c 02A9     		add	r1, sp, #8
 178 003e 0C48     		ldr	r0, .L9+8
 179              	.LVL7:
 109:Core/Src/stm32f1xx_hal_msp.c **** 
 180              		.loc 1 109 5 is_stmt 0 view .LVU42
 181 0040 FFF7FEFF 		bl	HAL_GPIO_Init
 182              	.LVL8:
 111:Core/Src/stm32f1xx_hal_msp.c **** 
 183              		.loc 1 111 5 is_stmt 1 view .LVU43
 184              	.LBB6:
 111:Core/Src/stm32f1xx_hal_msp.c **** 
 185              		.loc 1 111 5 view .LVU44
 186 0044 0B4A     		ldr	r2, .L9+12
 187 0046 5368     		ldr	r3, [r2, #4]
 188              	.LVL9:
 111:Core/Src/stm32f1xx_hal_msp.c **** 
 189              		.loc 1 111 5 view .LVU45
 111:Core/Src/stm32f1xx_hal_msp.c **** 
 190              		.loc 1 111 5 view .LVU46
 191 0048 43F0E063 		orr	r3, r3, #117440512
 192              	.LVL10:
 111:Core/Src/stm32f1xx_hal_msp.c **** 
 193              		.loc 1 111 5 is_stmt 0 view .LVU47
 194 004c 43F00203 		orr	r3, r3, #2
 195              	.LVL11:
 111:Core/Src/stm32f1xx_hal_msp.c **** 
 196              		.loc 1 111 5 is_stmt 1 view .LVU48
 197 0050 5360     		str	r3, [r2, #4]
 198              	.LBE6:
 111:Core/Src/stm32f1xx_hal_msp.c **** 
 199              		.loc 1 111 5 view .LVU49
 114:Core/Src/stm32f1xx_hal_msp.c ****   /* USER CODE BEGIN I2C1_MspInit 1 */
 200              		.loc 1 114 5 view .LVU50
 201              	.LBB7:
 114:Core/Src/stm32f1xx_hal_msp.c ****   /* USER CODE BEGIN I2C1_MspInit 1 */
 202              		.loc 1 114 5 view .LVU51
ARM GAS  C:\Users\vmyhr\AppData\Local\Temp\ccCa5dBC.s 			page 7


 114:Core/Src/stm32f1xx_hal_msp.c ****   /* USER CODE BEGIN I2C1_MspInit 1 */
 203              		.loc 1 114 5 view .LVU52
 204 0052 E369     		ldr	r3, [r4, #28]
 205              	.LVL12:
 114:Core/Src/stm32f1xx_hal_msp.c ****   /* USER CODE BEGIN I2C1_MspInit 1 */
 206              		.loc 1 114 5 is_stmt 0 view .LVU53
 207 0054 43F40013 		orr	r3, r3, #2097152
 208 0058 E361     		str	r3, [r4, #28]
 209              	.LVL13:
 114:Core/Src/stm32f1xx_hal_msp.c ****   /* USER CODE BEGIN I2C1_MspInit 1 */
 210              		.loc 1 114 5 is_stmt 1 view .LVU54
 211 005a E369     		ldr	r3, [r4, #28]
 212 005c 03F40013 		and	r3, r3, #2097152
 213 0060 0193     		str	r3, [sp, #4]
 114:Core/Src/stm32f1xx_hal_msp.c ****   /* USER CODE BEGIN I2C1_MspInit 1 */
 214              		.loc 1 114 5 view .LVU55
 215 0062 019B     		ldr	r3, [sp, #4]
 216              	.LBE7:
 114:Core/Src/stm32f1xx_hal_msp.c ****   /* USER CODE BEGIN I2C1_MspInit 1 */
 217              		.loc 1 114 5 discriminator 1 view .LVU56
 218              		.loc 1 120 1 is_stmt 0 view .LVU57
 219 0064 D7E7     		b	.L5
 220              	.L10:
 221 0066 00BF     		.align	2
 222              	.L9:
 223 0068 00540040 		.word	1073763328
 224 006c 00100240 		.word	1073876992
 225 0070 000C0140 		.word	1073810432
 226 0074 00000140 		.word	1073807360
 227              		.cfi_endproc
 228              	.LFE66:
 230              		.section	.text.HAL_I2C_MspDeInit,"ax",%progbits
 231              		.align	1
 232              		.global	HAL_I2C_MspDeInit
 233              		.syntax unified
 234              		.thumb
 235              		.thumb_func
 237              	HAL_I2C_MspDeInit:
 238              	.LVL14:
 239              	.LFB67:
 121:Core/Src/stm32f1xx_hal_msp.c **** 
 122:Core/Src/stm32f1xx_hal_msp.c **** /**
 123:Core/Src/stm32f1xx_hal_msp.c **** * @brief I2C MSP De-Initialization
 124:Core/Src/stm32f1xx_hal_msp.c **** * This function freeze the hardware resources used in this example
 125:Core/Src/stm32f1xx_hal_msp.c **** * @param hi2c: I2C handle pointer
 126:Core/Src/stm32f1xx_hal_msp.c **** * @retval None
 127:Core/Src/stm32f1xx_hal_msp.c **** */
 128:Core/Src/stm32f1xx_hal_msp.c **** void HAL_I2C_MspDeInit(I2C_HandleTypeDef* hi2c)
 129:Core/Src/stm32f1xx_hal_msp.c **** {
 240              		.loc 1 129 1 is_stmt 1 view -0
 241              		.cfi_startproc
 242              		@ args = 0, pretend = 0, frame = 0
 243              		@ frame_needed = 0, uses_anonymous_args = 0
 130:Core/Src/stm32f1xx_hal_msp.c ****   if(hi2c->Instance==I2C1)
 244              		.loc 1 130 3 view .LVU59
 245              		.loc 1 130 10 is_stmt 0 view .LVU60
 246 0000 0268     		ldr	r2, [r0]
ARM GAS  C:\Users\vmyhr\AppData\Local\Temp\ccCa5dBC.s 			page 8


 247              		.loc 1 130 5 view .LVU61
 248 0002 0B4B     		ldr	r3, .L18
 249 0004 9A42     		cmp	r2, r3
 250 0006 00D0     		beq	.L17
 251 0008 7047     		bx	lr
 252              	.L17:
 129:Core/Src/stm32f1xx_hal_msp.c ****   if(hi2c->Instance==I2C1)
 253              		.loc 1 129 1 view .LVU62
 254 000a 10B5     		push	{r4, lr}
 255              		.cfi_def_cfa_offset 8
 256              		.cfi_offset 4, -8
 257              		.cfi_offset 14, -4
 131:Core/Src/stm32f1xx_hal_msp.c ****   {
 132:Core/Src/stm32f1xx_hal_msp.c ****   /* USER CODE BEGIN I2C1_MspDeInit 0 */
 133:Core/Src/stm32f1xx_hal_msp.c **** 
 134:Core/Src/stm32f1xx_hal_msp.c ****   /* USER CODE END I2C1_MspDeInit 0 */
 135:Core/Src/stm32f1xx_hal_msp.c ****     /* Peripheral clock disable */
 136:Core/Src/stm32f1xx_hal_msp.c ****     __HAL_RCC_I2C1_CLK_DISABLE();
 258              		.loc 1 136 5 is_stmt 1 view .LVU63
 259 000c 094A     		ldr	r2, .L18+4
 260 000e D369     		ldr	r3, [r2, #28]
 261 0010 23F40013 		bic	r3, r3, #2097152
 262 0014 D361     		str	r3, [r2, #28]
 137:Core/Src/stm32f1xx_hal_msp.c **** 
 138:Core/Src/stm32f1xx_hal_msp.c ****     /**I2C1 GPIO Configuration
 139:Core/Src/stm32f1xx_hal_msp.c ****     PB8     ------> I2C1_SCL
 140:Core/Src/stm32f1xx_hal_msp.c ****     PB9     ------> I2C1_SDA
 141:Core/Src/stm32f1xx_hal_msp.c ****     */
 142:Core/Src/stm32f1xx_hal_msp.c ****     HAL_GPIO_DeInit(GPIOB, GPIO_PIN_8);
 263              		.loc 1 142 5 view .LVU64
 264 0016 084C     		ldr	r4, .L18+8
 265 0018 4FF48071 		mov	r1, #256
 266 001c 2046     		mov	r0, r4
 267              	.LVL15:
 268              		.loc 1 142 5 is_stmt 0 view .LVU65
 269 001e FFF7FEFF 		bl	HAL_GPIO_DeInit
 270              	.LVL16:
 143:Core/Src/stm32f1xx_hal_msp.c **** 
 144:Core/Src/stm32f1xx_hal_msp.c ****     HAL_GPIO_DeInit(GPIOB, GPIO_PIN_9);
 271              		.loc 1 144 5 is_stmt 1 view .LVU66
 272 0022 4FF40071 		mov	r1, #512
 273 0026 2046     		mov	r0, r4
 274 0028 FFF7FEFF 		bl	HAL_GPIO_DeInit
 275              	.LVL17:
 145:Core/Src/stm32f1xx_hal_msp.c **** 
 146:Core/Src/stm32f1xx_hal_msp.c ****   /* USER CODE BEGIN I2C1_MspDeInit 1 */
 147:Core/Src/stm32f1xx_hal_msp.c **** 
 148:Core/Src/stm32f1xx_hal_msp.c ****   /* USER CODE END I2C1_MspDeInit 1 */
 149:Core/Src/stm32f1xx_hal_msp.c ****   }
 150:Core/Src/stm32f1xx_hal_msp.c **** 
 151:Core/Src/stm32f1xx_hal_msp.c **** }
 276              		.loc 1 151 1 is_stmt 0 view .LVU67
 277 002c 10BD     		pop	{r4, pc}
 278              	.L19:
 279 002e 00BF     		.align	2
 280              	.L18:
 281 0030 00540040 		.word	1073763328
ARM GAS  C:\Users\vmyhr\AppData\Local\Temp\ccCa5dBC.s 			page 9


 282 0034 00100240 		.word	1073876992
 283 0038 000C0140 		.word	1073810432
 284              		.cfi_endproc
 285              	.LFE67:
 287              		.section	.text.HAL_UART_MspInit,"ax",%progbits
 288              		.align	1
 289              		.global	HAL_UART_MspInit
 290              		.syntax unified
 291              		.thumb
 292              		.thumb_func
 294              	HAL_UART_MspInit:
 295              	.LVL18:
 296              	.LFB68:
 152:Core/Src/stm32f1xx_hal_msp.c **** 
 153:Core/Src/stm32f1xx_hal_msp.c **** /**
 154:Core/Src/stm32f1xx_hal_msp.c **** * @brief UART MSP Initialization
 155:Core/Src/stm32f1xx_hal_msp.c **** * This function configures the hardware resources used in this example
 156:Core/Src/stm32f1xx_hal_msp.c **** * @param huart: UART handle pointer
 157:Core/Src/stm32f1xx_hal_msp.c **** * @retval None
 158:Core/Src/stm32f1xx_hal_msp.c **** */
 159:Core/Src/stm32f1xx_hal_msp.c **** void HAL_UART_MspInit(UART_HandleTypeDef* huart)
 160:Core/Src/stm32f1xx_hal_msp.c **** {
 297              		.loc 1 160 1 is_stmt 1 view -0
 298              		.cfi_startproc
 299              		@ args = 0, pretend = 0, frame = 24
 300              		@ frame_needed = 0, uses_anonymous_args = 0
 301              		.loc 1 160 1 is_stmt 0 view .LVU69
 302 0000 00B5     		push	{lr}
 303              		.cfi_def_cfa_offset 4
 304              		.cfi_offset 14, -4
 305 0002 87B0     		sub	sp, sp, #28
 306              		.cfi_def_cfa_offset 32
 161:Core/Src/stm32f1xx_hal_msp.c ****   GPIO_InitTypeDef GPIO_InitStruct = {0};
 307              		.loc 1 161 3 is_stmt 1 view .LVU70
 308              		.loc 1 161 20 is_stmt 0 view .LVU71
 309 0004 0023     		movs	r3, #0
 310 0006 0293     		str	r3, [sp, #8]
 311 0008 0393     		str	r3, [sp, #12]
 312 000a 0493     		str	r3, [sp, #16]
 313 000c 0593     		str	r3, [sp, #20]
 162:Core/Src/stm32f1xx_hal_msp.c ****   if(huart->Instance==USART2)
 314              		.loc 1 162 3 is_stmt 1 view .LVU72
 315              		.loc 1 162 11 is_stmt 0 view .LVU73
 316 000e 0268     		ldr	r2, [r0]
 317              		.loc 1 162 5 view .LVU74
 318 0010 114B     		ldr	r3, .L24
 319 0012 9A42     		cmp	r2, r3
 320 0014 02D0     		beq	.L23
 321              	.LVL19:
 322              	.L20:
 163:Core/Src/stm32f1xx_hal_msp.c ****   {
 164:Core/Src/stm32f1xx_hal_msp.c ****   /* USER CODE BEGIN USART2_MspInit 0 */
 165:Core/Src/stm32f1xx_hal_msp.c **** 
 166:Core/Src/stm32f1xx_hal_msp.c ****   /* USER CODE END USART2_MspInit 0 */
 167:Core/Src/stm32f1xx_hal_msp.c ****     /* Peripheral clock enable */
 168:Core/Src/stm32f1xx_hal_msp.c ****     __HAL_RCC_USART2_CLK_ENABLE();
 169:Core/Src/stm32f1xx_hal_msp.c **** 
ARM GAS  C:\Users\vmyhr\AppData\Local\Temp\ccCa5dBC.s 			page 10


 170:Core/Src/stm32f1xx_hal_msp.c ****     __HAL_RCC_GPIOA_CLK_ENABLE();
 171:Core/Src/stm32f1xx_hal_msp.c ****     /**USART2 GPIO Configuration
 172:Core/Src/stm32f1xx_hal_msp.c ****     PA2     ------> USART2_TX
 173:Core/Src/stm32f1xx_hal_msp.c ****     PA3     ------> USART2_RX
 174:Core/Src/stm32f1xx_hal_msp.c ****     */
 175:Core/Src/stm32f1xx_hal_msp.c ****     GPIO_InitStruct.Pin = USART_TX_Pin|USART_RX_Pin;
 176:Core/Src/stm32f1xx_hal_msp.c ****     GPIO_InitStruct.Mode = GPIO_MODE_AF_PP;
 177:Core/Src/stm32f1xx_hal_msp.c ****     GPIO_InitStruct.Speed = GPIO_SPEED_FREQ_LOW;
 178:Core/Src/stm32f1xx_hal_msp.c ****     HAL_GPIO_Init(GPIOA, &GPIO_InitStruct);
 179:Core/Src/stm32f1xx_hal_msp.c **** 
 180:Core/Src/stm32f1xx_hal_msp.c ****   /* USER CODE BEGIN USART2_MspInit 1 */
 181:Core/Src/stm32f1xx_hal_msp.c **** 
 182:Core/Src/stm32f1xx_hal_msp.c ****   /* USER CODE END USART2_MspInit 1 */
 183:Core/Src/stm32f1xx_hal_msp.c ****   }
 184:Core/Src/stm32f1xx_hal_msp.c **** 
 185:Core/Src/stm32f1xx_hal_msp.c **** }
 323              		.loc 1 185 1 view .LVU75
 324 0016 07B0     		add	sp, sp, #28
 325              		.cfi_remember_state
 326              		.cfi_def_cfa_offset 4
 327              		@ sp needed
 328 0018 5DF804FB 		ldr	pc, [sp], #4
 329              	.LVL20:
 330              	.L23:
 331              		.cfi_restore_state
 168:Core/Src/stm32f1xx_hal_msp.c **** 
 332              		.loc 1 168 5 is_stmt 1 view .LVU76
 333              	.LBB8:
 168:Core/Src/stm32f1xx_hal_msp.c **** 
 334              		.loc 1 168 5 view .LVU77
 168:Core/Src/stm32f1xx_hal_msp.c **** 
 335              		.loc 1 168 5 view .LVU78
 336 001c 03F5E633 		add	r3, r3, #117760
 337 0020 DA69     		ldr	r2, [r3, #28]
 338 0022 42F40032 		orr	r2, r2, #131072
 339 0026 DA61     		str	r2, [r3, #28]
 168:Core/Src/stm32f1xx_hal_msp.c **** 
 340              		.loc 1 168 5 view .LVU79
 341 0028 DA69     		ldr	r2, [r3, #28]
 342 002a 02F40032 		and	r2, r2, #131072
 343 002e 0092     		str	r2, [sp]
 168:Core/Src/stm32f1xx_hal_msp.c **** 
 344              		.loc 1 168 5 view .LVU80
 345 0030 009A     		ldr	r2, [sp]
 346              	.LBE8:
 168:Core/Src/stm32f1xx_hal_msp.c **** 
 347              		.loc 1 168 5 view .LVU81
 170:Core/Src/stm32f1xx_hal_msp.c ****     /**USART2 GPIO Configuration
 348              		.loc 1 170 5 view .LVU82
 349              	.LBB9:
 170:Core/Src/stm32f1xx_hal_msp.c ****     /**USART2 GPIO Configuration
 350              		.loc 1 170 5 view .LVU83
 170:Core/Src/stm32f1xx_hal_msp.c ****     /**USART2 GPIO Configuration
 351              		.loc 1 170 5 view .LVU84
 352 0032 9A69     		ldr	r2, [r3, #24]
 353 0034 42F00402 		orr	r2, r2, #4
 354 0038 9A61     		str	r2, [r3, #24]
ARM GAS  C:\Users\vmyhr\AppData\Local\Temp\ccCa5dBC.s 			page 11


 170:Core/Src/stm32f1xx_hal_msp.c ****     /**USART2 GPIO Configuration
 355              		.loc 1 170 5 view .LVU85
 356 003a 9B69     		ldr	r3, [r3, #24]
 357 003c 03F00403 		and	r3, r3, #4
 358 0040 0193     		str	r3, [sp, #4]
 170:Core/Src/stm32f1xx_hal_msp.c ****     /**USART2 GPIO Configuration
 359              		.loc 1 170 5 view .LVU86
 360 0042 019B     		ldr	r3, [sp, #4]
 361              	.LBE9:
 170:Core/Src/stm32f1xx_hal_msp.c ****     /**USART2 GPIO Configuration
 362              		.loc 1 170 5 view .LVU87
 175:Core/Src/stm32f1xx_hal_msp.c ****     GPIO_InitStruct.Mode = GPIO_MODE_AF_PP;
 363              		.loc 1 175 5 view .LVU88
 175:Core/Src/stm32f1xx_hal_msp.c ****     GPIO_InitStruct.Mode = GPIO_MODE_AF_PP;
 364              		.loc 1 175 25 is_stmt 0 view .LVU89
 365 0044 0C23     		movs	r3, #12
 366 0046 0293     		str	r3, [sp, #8]
 176:Core/Src/stm32f1xx_hal_msp.c ****     GPIO_InitStruct.Speed = GPIO_SPEED_FREQ_LOW;
 367              		.loc 1 176 5 is_stmt 1 view .LVU90
 176:Core/Src/stm32f1xx_hal_msp.c ****     GPIO_InitStruct.Speed = GPIO_SPEED_FREQ_LOW;
 368              		.loc 1 176 26 is_stmt 0 view .LVU91
 369 0048 0223     		movs	r3, #2
 370 004a 0393     		str	r3, [sp, #12]
 177:Core/Src/stm32f1xx_hal_msp.c ****     HAL_GPIO_Init(GPIOA, &GPIO_InitStruct);
 371              		.loc 1 177 5 is_stmt 1 view .LVU92
 177:Core/Src/stm32f1xx_hal_msp.c ****     HAL_GPIO_Init(GPIOA, &GPIO_InitStruct);
 372              		.loc 1 177 27 is_stmt 0 view .LVU93
 373 004c 0593     		str	r3, [sp, #20]
 178:Core/Src/stm32f1xx_hal_msp.c **** 
 374              		.loc 1 178 5 is_stmt 1 view .LVU94
 375 004e 02A9     		add	r1, sp, #8
 376 0050 0248     		ldr	r0, .L24+4
 377              	.LVL21:
 178:Core/Src/stm32f1xx_hal_msp.c **** 
 378              		.loc 1 178 5 is_stmt 0 view .LVU95
 379 0052 FFF7FEFF 		bl	HAL_GPIO_Init
 380              	.LVL22:
 381              		.loc 1 185 1 view .LVU96
 382 0056 DEE7     		b	.L20
 383              	.L25:
 384              		.align	2
 385              	.L24:
 386 0058 00440040 		.word	1073759232
 387 005c 00080140 		.word	1073809408
 388              		.cfi_endproc
 389              	.LFE68:
 391              		.section	.text.HAL_UART_MspDeInit,"ax",%progbits
 392              		.align	1
 393              		.global	HAL_UART_MspDeInit
 394              		.syntax unified
 395              		.thumb
 396              		.thumb_func
 398              	HAL_UART_MspDeInit:
 399              	.LVL23:
 400              	.LFB69:
 186:Core/Src/stm32f1xx_hal_msp.c **** 
 187:Core/Src/stm32f1xx_hal_msp.c **** /**
ARM GAS  C:\Users\vmyhr\AppData\Local\Temp\ccCa5dBC.s 			page 12


 188:Core/Src/stm32f1xx_hal_msp.c **** * @brief UART MSP De-Initialization
 189:Core/Src/stm32f1xx_hal_msp.c **** * This function freeze the hardware resources used in this example
 190:Core/Src/stm32f1xx_hal_msp.c **** * @param huart: UART handle pointer
 191:Core/Src/stm32f1xx_hal_msp.c **** * @retval None
 192:Core/Src/stm32f1xx_hal_msp.c **** */
 193:Core/Src/stm32f1xx_hal_msp.c **** void HAL_UART_MspDeInit(UART_HandleTypeDef* huart)
 194:Core/Src/stm32f1xx_hal_msp.c **** {
 401              		.loc 1 194 1 is_stmt 1 view -0
 402              		.cfi_startproc
 403              		@ args = 0, pretend = 0, frame = 0
 404              		@ frame_needed = 0, uses_anonymous_args = 0
 405              		.loc 1 194 1 is_stmt 0 view .LVU98
 406 0000 08B5     		push	{r3, lr}
 407              		.cfi_def_cfa_offset 8
 408              		.cfi_offset 3, -8
 409              		.cfi_offset 14, -4
 195:Core/Src/stm32f1xx_hal_msp.c ****   if(huart->Instance==USART2)
 410              		.loc 1 195 3 is_stmt 1 view .LVU99
 411              		.loc 1 195 11 is_stmt 0 view .LVU100
 412 0002 0268     		ldr	r2, [r0]
 413              		.loc 1 195 5 view .LVU101
 414 0004 064B     		ldr	r3, .L30
 415 0006 9A42     		cmp	r2, r3
 416 0008 00D0     		beq	.L29
 417              	.LVL24:
 418              	.L26:
 196:Core/Src/stm32f1xx_hal_msp.c ****   {
 197:Core/Src/stm32f1xx_hal_msp.c ****   /* USER CODE BEGIN USART2_MspDeInit 0 */
 198:Core/Src/stm32f1xx_hal_msp.c **** 
 199:Core/Src/stm32f1xx_hal_msp.c ****   /* USER CODE END USART2_MspDeInit 0 */
 200:Core/Src/stm32f1xx_hal_msp.c ****     /* Peripheral clock disable */
 201:Core/Src/stm32f1xx_hal_msp.c ****     __HAL_RCC_USART2_CLK_DISABLE();
 202:Core/Src/stm32f1xx_hal_msp.c **** 
 203:Core/Src/stm32f1xx_hal_msp.c ****     /**USART2 GPIO Configuration
 204:Core/Src/stm32f1xx_hal_msp.c ****     PA2     ------> USART2_TX
 205:Core/Src/stm32f1xx_hal_msp.c ****     PA3     ------> USART2_RX
 206:Core/Src/stm32f1xx_hal_msp.c ****     */
 207:Core/Src/stm32f1xx_hal_msp.c ****     HAL_GPIO_DeInit(GPIOA, USART_TX_Pin|USART_RX_Pin);
 208:Core/Src/stm32f1xx_hal_msp.c **** 
 209:Core/Src/stm32f1xx_hal_msp.c ****   /* USER CODE BEGIN USART2_MspDeInit 1 */
 210:Core/Src/stm32f1xx_hal_msp.c **** 
 211:Core/Src/stm32f1xx_hal_msp.c ****   /* USER CODE END USART2_MspDeInit 1 */
 212:Core/Src/stm32f1xx_hal_msp.c ****   }
 213:Core/Src/stm32f1xx_hal_msp.c **** 
 214:Core/Src/stm32f1xx_hal_msp.c **** }
 419              		.loc 1 214 1 view .LVU102
 420 000a 08BD     		pop	{r3, pc}
 421              	.LVL25:
 422              	.L29:
 201:Core/Src/stm32f1xx_hal_msp.c **** 
 423              		.loc 1 201 5 is_stmt 1 view .LVU103
 424 000c 054A     		ldr	r2, .L30+4
 425 000e D369     		ldr	r3, [r2, #28]
 426 0010 23F40033 		bic	r3, r3, #131072
 427 0014 D361     		str	r3, [r2, #28]
 207:Core/Src/stm32f1xx_hal_msp.c **** 
 428              		.loc 1 207 5 view .LVU104
ARM GAS  C:\Users\vmyhr\AppData\Local\Temp\ccCa5dBC.s 			page 13


 429 0016 0C21     		movs	r1, #12
 430 0018 0348     		ldr	r0, .L30+8
 431              	.LVL26:
 207:Core/Src/stm32f1xx_hal_msp.c **** 
 432              		.loc 1 207 5 is_stmt 0 view .LVU105
 433 001a FFF7FEFF 		bl	HAL_GPIO_DeInit
 434              	.LVL27:
 435              		.loc 1 214 1 view .LVU106
 436 001e F4E7     		b	.L26
 437              	.L31:
 438              		.align	2
 439              	.L30:
 440 0020 00440040 		.word	1073759232
 441 0024 00100240 		.word	1073876992
 442 0028 00080140 		.word	1073809408
 443              		.cfi_endproc
 444              	.LFE69:
 446              		.text
 447              	.Letext0:
 448              		.file 2 "Drivers/CMSIS/Device/ST/STM32F1xx/Include/stm32f103xb.h"
 449              		.file 3 "C:/Users/vmyhr/AppData/Roaming/Code/User/globalStorage/bmd.stm32-for-vscode/@xpack-dev-to
 450              		.file 4 "C:/Users/vmyhr/AppData/Roaming/Code/User/globalStorage/bmd.stm32-for-vscode/@xpack-dev-to
 451              		.file 5 "Drivers/STM32F1xx_HAL_Driver/Inc/stm32f1xx_hal_def.h"
 452              		.file 6 "Drivers/STM32F1xx_HAL_Driver/Inc/stm32f1xx_hal_gpio.h"
 453              		.file 7 "Drivers/STM32F1xx_HAL_Driver/Inc/stm32f1xx_hal_dma.h"
 454              		.file 8 "Drivers/STM32F1xx_HAL_Driver/Inc/stm32f1xx_hal_i2c.h"
 455              		.file 9 "Drivers/STM32F1xx_HAL_Driver/Inc/stm32f1xx_hal_uart.h"
 456              		.file 10 "Drivers/STM32F1xx_HAL_Driver/Inc/stm32f1xx_hal_cortex.h"
ARM GAS  C:\Users\vmyhr\AppData\Local\Temp\ccCa5dBC.s 			page 14

